0001                               *dasmfw: Disassembler Framework V0.35
0002                               *Loaded: binary file "exbug12.bin"
0003                               *Loaded: Info file "exbug12.info"
0004                               *
0005                               *;****************************************************
0006                               *; Used Labels
0007                               *;****************************************************
0008                               
0009 0000                          M0000   EQU     $0000
0010 0004                          M0004   EQU     $0004
0011 0317                          M0317   EQU     $0317
0012 072f                          M072F   EQU     $072F
0013 30d4                          M30D4   EQU     $30D4
0014 83ff                          M83FF   EQU     $83FF
0015 fcf4                          ACIA_0  EQU     $FCF4
0016 fcf5                          ACIA_1  EQU     $FCF5
0017 fcf8                          PIA_0   EQU     $FCF8
0018 fcf9                          PIA_1   EQU     $FCF9
0019 fcfa                          PIA_2   EQU     $FCFA
0020 fcfb                          PIA_3   EQU     $FCFB
0021 fcfd                          PROM_1  EQU     $FCFD
0022 ff00                          RAM_START        EQU     $FF00
0023 ff02                          MFF02   EQU     $FF02
0024 ff03                          MFF03   EQU     $FF03
0025 ff04                          MFF04   EQU     $FF04
0026 ff05                          MFF05   EQU     $FF05
0027 ff06                          MFF06   EQU     $FF06
0028 ff07                          MFF07   EQU     $FF07
0029 ff08                          MFF08   EQU     $FF08
0030 ff09                          MFF09   EQU     $FF09
0031 ff0a                          MFF0A   EQU     $FF0A
0032 ff0b                          MFF0B   EQU     $FF0B
0033 ff0c                          MFF0C   EQU     $FF0C
0034 ff0d                          MFF0D   EQU     $FF0D
0035 ff0e                          MFF0E   EQU     $FF0E
0036 ff10                          MFF10   EQU     $FF10
0037 ff12                          MFF12   EQU     $FF12
0038 ff13                          MFF13   EQU     $FF13
0039 ff14                          MFF14   EQU     $FF14
0040 ff16                          XREG$P  EQU     $FF16
0041 ff17                          MFF17   EQU     $FF17
0042 ff1c                          XREG$C  EQU     $FF1C
0043 ff1d                          XREG$S  EQU     $FF1D
0044 ff1f                          BRKPT$  EQU     $FF1F
0045 ff2f                          MFF2F   EQU     $FF2F
0046 ff4f                          BKPIN$  EQU     $FF4F
0047 ff50                          MFF50   EQU     $FF50
0048 ff51                          MFF51   EQU     $FF51
0049 ff53                          AECHO   EQU     $FF53
0050 ff54                          MFF54   EQU     $FF54
0051 ff56                          MFF56   EQU     $FF56
0052 ff58                          MFF58   EQU     $FF58
0053 ff5a                          MFF5A   EQU     $FF5A
0054 ff5b                          MFF5B   EQU     $FF5B
0055 ff5c                          MFF5C   EQU     $FF5C
0056 ff5d                          MFF5D   EQU     $FF5D
0057 ff5e                          MFF5E   EQU     $FF5E
0058 ff5f                          MFF5F   EQU     $FF5F
0059 ff60                          MFF60   EQU     $FF60
0060 ff61                          MFF61   EQU     $FF61
0061 ff62                          MFF62   EQU     $FF62
0062 ff63                          MFF63   EQU     $FF63
0063 ff8a                          XSTAK$  EQU     $FF8A
0064 ff8b                          MFF8B   EQU     $FF8B
0065 ff8c                          MFF8C   EQU     $FF8C
0066 ff8d                          MFF8D   EQU     $FF8D
0067 ff8e                          MFF8E   EQU     $FF8E
0068 ff90                          MFF90   EQU     $FF90
0069 ff93                          MFF93   EQU     $FF93
0070 ffd5                          MFFD5   EQU     $FFD5
0071 fff6                          MFFF6   EQU     $FFF6
0072 fff7                          MFFF7   EQU     $FFF7
0073 fff8                          IRQ$VC  EQU     $FFF8
0074 fff9                          MFFF9   EQU     $FFF9
0075 fffa                          SWI$VC  EQU     $FFFA
0076 fffc                          NMI$VC  EQU     $FFFC
0077                               
0078                               *;****************************************************
0079                               *; Program's Code Areas
0080                               *;****************************************************
0081                               *
0082                               
0083 f000                                          ORG     $F000
0084                               
0085 f000 7e f5 47           [ 3 ] PWRUP           JMP     PWRUP1                   ; F000: 7E F5 47       '~.G'
0086 f003 7e f7 87           [ 3 ] XBEGEN          JMP     XBEGEN1                  ; F003: 7E F7 87       '~..'
0087 f006 7e fa 86           [ 3 ] XCBCDH          JMP     XCBCDH1                  ; F006: 7E FA 86       '~..'
0088 f009 7e f9 b8           [ 3 ] XCHEXL          JMP     XCHEXL1                  ; F009: 7E F9 B8       '~..'
0089 f00c 7e f9 bc           [ 3 ] XCHEXR          JMP     XCHEXR1                  ; F00C: 7E F9 BC       '~..'
0090 f00f 7e fa 43           [ 3 ] XINADD          JMP     XINADD1                  ; F00F: 7E FA 43       '~.C'
0091 f012 7e fa 6b           [ 3 ] XINCH           JMP     XINCH1                   ; F012: 7E FA 6B       '~.k'
0092 f015 7e fa 7f           [ 3 ] XINCHN          JMP     XINCHN1                  ; F015: 7E FA 7F       '~..'
0093 f018 7e f9 e2           [ 3 ] XOUTCH          JMP     XOUTCH1                  ; F018: 7E F9 E2       '~..'
0094 f01b 7e f9 c9           [ 3 ] XOUT2H          JMP     XOUT2H1                  ; F01B: 7E F9 C9       '~..'
0095 f01e 7e f9 c7           [ 3 ] XOUT4H          JMP     XOUT4H1                  ; F01E: 7E F9 C7       '~..'
0096 f021 7e fa 21           [ 3 ] XPCRLF          JMP     XPCRLF1                  ; F021: 7E FA 21       '~.!'
0097 f024 7e fa 14           [ 3 ] XPDATA          JMP     XPDATA1                  ; F024: 7E FA 14       '~..'
0098 f027 7e fa 16           [ 3 ] XPDAT           JMP     XPDAT1                   ; F027: 7E FA 16       '~..'
0099 f02a 7e f9 cb           [ 3 ] XPSPAC          JMP     XPSPAC1                  ; F02A: 7E F9 CB       '~..'
0100 f02d 27                       MF02D           FCB     $27                      ; F02D: 27             '''
0101 f02e 10 03 e8 00                              FCB     $10,$03,$E8,$00          ; F02E: 10 03 E8 00    '....'
0102 f032 64                                       FCB     $64                      ; F032: 64             'd'
0103 f033 00 0a 00 01                              FCB     $00,$0A,$00,$01          ; F033: 00 0A 00 01    '....'
0104 f037 bd fa 86           [ 6 ] ZF037           JSR     XCBCDH1                  ; F037: BD FA 86       '...'
0105 f03a 2b 6a              [ 3 ]                 BMI     ZF0A6                    ; F03A: 2B 6A          '+j'
0106 f03c 68 01              [ 6 ]                 ASL     $01,X                    ; F03C: 68 01          'h.'
0107 f03e 69 00              [ 6 ]                 ROL     ,X                       ; F03E: 69 00          'i.'
0108 f040 8d 3a              [ 6 ]                 BSR     ZF07C                    ; F040: 8D 3A          '.:'
0109 f042 ab 01              [ 4 ]                 ADDA    $01,X                    ; F042: AB 01          '..'
0110 f044 a7 01              [ 4 ]                 STAA    $01,X                    ; F044: A7 01          '..'
0111 f046 bd fa 7f           [ 6 ] ZF046           JSR     XINCHN1                  ; F046: BD FA 7F       '...'
0112 f049 81 3d              [ 2 ]                 CMPA    #'=                      ; F049: 81 3D          '.='
0113 f04b 26 ea              [ 3 ]                 BNE     ZF037                    ; F04B: 26 EA          '&.'
0114 f04d bd f9 cb           [ 6 ]                 JSR     XPSPAC1                  ; F04D: BD F9 CB       '...'
0115 f050 ce f0 2d           [ 3 ]                 LDX     #MF02D                   ; F050: CE F0 2D       '..-'
0116 f053 b6 ff 08           [ 4 ]                 LDAA    MFF08                    ; F053: B6 FF 08       '...'
0117 f056 f6 ff 09           [ 4 ]                 LDAB    MFF09                    ; F056: F6 FF 09       '...'
0118 f059 7f ff 5a           [ 6 ] ZF059           CLR     MFF5A                    ; F059: 7F FF 5A       '..Z'
0119 f05c 7c ff 5a           [ 6 ] ZF05C           INC     MFF5A                    ; F05C: 7C FF 5A       '|.Z'
0120 f05f e0 01              [ 4 ]                 SUBB    $01,X                    ; F05F: E0 01          '..'
0121 f061 a2 00              [ 4 ]                 SBCA    ,X                       ; F061: A2 00          '..'
0122 f063 24 f7              [ 3 ]                 BCC     ZF05C                    ; F063: 24 F7          '$.'
0123 f065 eb 01              [ 4 ]                 ADDB    $01,X                    ; F065: EB 01          '..'
0124 f067 a9 00              [ 4 ]                 ADCA    ,X                       ; F067: A9 00          '..'
0125 f069 36                 [ 3 ]                 PSHA                             ; F069: 36             '6'
0126 f06a b6 ff 5a           [ 4 ]                 LDAA    MFF5A                    ; F06A: B6 FF 5A       '..Z'
0127 f06d 8b 2f              [ 2 ]                 ADDA    #$2F                     ; F06D: 8B 2F          './'
0128 f06f bd f9 e2           [ 6 ]                 JSR     XOUTCH1                  ; F06F: BD F9 E2       '...'
0129 f072 32                 [ 4 ]                 PULA                             ; F072: 32             '2'
0130 f073 08                 [ 3 ]                 INX                              ; F073: 08             '.'
0131 f074 08                 [ 3 ]                 INX                              ; F074: 08             '.'
0132 f075 8c f0 37           [ 4 ]                 CPX     #ZF037                   ; F075: 8C F0 37       '..7'
0133 f078 26 df              [ 3 ]                 BNE     ZF059                    ; F078: 26 DF          '&.'
0134 f07a 20 77              [ 3 ]                 BRA     MAID$                    ; F07A: 20 77          ' w'
0135 f07c 68 01              [ 6 ] ZF07C           ASL     $01,X                    ; F07C: 68 01          'h.'
0136 f07e 69 00              [ 6 ]                 ROL     ,X                       ; F07E: 69 00          'i.'
0137 f080 68 01              [ 6 ]                 ASL     $01,X                    ; F080: 68 01          'h.'
0138 f082 69 00              [ 6 ]                 ROL     ,X                       ; F082: 69 00          'i.'
0139 f084 68 01              [ 6 ]                 ASL     $01,X                    ; F084: 68 01          'h.'
0140 f086 69 00              [ 6 ]                 ROL     ,X                       ; F086: 69 00          'i.'
0141 f088 39                 [ 5 ]                 RTS                              ; F088: 39             '9'
0142 f089 ce ff 08           [ 3 ] ZF089           LDX     #MFF08                   ; F089: CE FF 08       '...'
0143 f08c 7f ff 07           [ 6 ]                 CLR     MFF07                    ; F08C: 7F FF 07       '...'
0144 f08f 6f 00              [ 6 ]                 CLR     ,X                       ; F08F: 6F 00          'o.'
0145 f091 6f 01              [ 6 ]                 CLR     $01,X                    ; F091: 6F 01          'o.'
0146 f093 bd fa 7f           [ 6 ]                 JSR     XINCHN1                  ; F093: BD FA 7F       '...'
0147 f096 81 24              [ 2 ]                 CMPA    #'$                      ; F096: 81 24          '.$'
0148 f098 27 ac              [ 3 ]                 BEQ     ZF046                    ; F098: 27 AC          ''.'
0149 f09a 81 40              [ 2 ]                 CMPA    #'@                      ; F09A: 81 40          '.@'
0150 f09c 27 46              [ 3 ]                 BEQ     ZF0E4                    ; F09C: 27 46          ''F'
0151 f09e 81 30              [ 2 ] ZF09E           CMPA    #'0                      ; F09E: 81 30          '.0'
0152 f0a0 2b 04              [ 3 ]                 BMI     ZF0A6                    ; F0A0: 2B 04          '+.'
0153 f0a2 81 39              [ 2 ]                 CMPA    #'9                      ; F0A2: 81 39          '.9'
0154 f0a4 2f 02              [ 3 ]                 BLE     ZF0A8                    ; F0A4: 2F 02          '/.'
0155 f0a6 20 76              [ 3 ] ZF0A6           BRA     ZF11E                    ; F0A6: 20 76          ' v'
0156 f0a8 84 0f              [ 2 ] ZF0A8           ANDA    #$0F                     ; F0A8: 84 0F          '..'
0157 f0aa b7 ff 5a           [ 4 ]                 STAA    MFF5A                    ; F0AA: B7 FF 5A       '..Z'
0158 f0ad a6 00              [ 4 ]                 LDAA    ,X                       ; F0AD: A6 00          '..'
0159 f0af e6 01              [ 4 ]                 LDAB    $01,X                    ; F0AF: E6 01          '..'
0160 f0b1 58                 [ 2 ]                 LSLB                             ; F0B1: 58 49          'XI'
0161 f0b2 49                 [ 2 ]                 ROLA
0162 f0b3 8d c7              [ 6 ]                 BSR     ZF07C                    ; F0B3: 8D C7          '..'
0163 f0b5 eb 01              [ 4 ]                 ADDB    $01,X                    ; F0B5: EB 01          '..'
0164 f0b7 a9 00              [ 4 ]                 ADCA    ,X                       ; F0B7: A9 00          '..'
0165 f0b9 fb ff 5a           [ 4 ]                 ADDB    MFF5A                    ; F0B9: FB FF 5A       '..Z'
0166 f0bc 89 00              [ 2 ]                 ADCA    #$00                     ; F0BC: 89 00          '..'
0167 f0be a7 00              [ 4 ]                 STAA    ,X                       ; F0BE: A7 00          '..'
0168 f0c0 e7 01              [ 4 ]                 STAB    $01,X                    ; F0C0: E7 01          '..'
0169 f0c2 bd fa 7f           [ 6 ]                 JSR     XINCHN1                  ; F0C2: BD FA 7F       '...'
0170 f0c5 81 3d              [ 2 ]                 CMPA    #'=                      ; F0C5: 81 3D          '.='
0171 f0c7 26 d5              [ 3 ]                 BNE     ZF09E                    ; F0C7: 26 D5          '&.'
0172 f0c9 bd f9 cb           [ 6 ] ZF0C9           JSR     XPSPAC1                  ; F0C9: BD F9 CB       '...'
0173 f0cc ce ff 08           [ 3 ]                 LDX     #MFF08                   ; F0CC: CE FF 08       '...'
0174 f0cf bd f9 c7           [ 6 ]                 JSR     XOUT4H1                  ; F0CF: BD F9 C7       '...'
0175 f0d2 20 1f              [ 3 ]                 BRA     MAID$                    ; F0D2: 20 1F          ' .'
0176 f0d4 81 30              [ 2 ] ZF0D4           CMPA    #'0                      ; F0D4: 81 30          '.0'
0177 f0d6 2b ce              [ 3 ]                 BMI     ZF0A6                    ; F0D6: 2B CE          '+.'
0178 f0d8 81 38              [ 2 ]                 CMPA    #'8                      ; F0D8: 81 38          '.8'
0179 f0da 2a ca              [ 3 ]                 BPL     ZF0A6                    ; F0DA: 2A CA          '*.'
0180 f0dc 8d 9e              [ 6 ]                 BSR     ZF07C                    ; F0DC: 8D 9E          '..'
0181 f0de 84 07              [ 2 ]                 ANDA    #$07                     ; F0DE: 84 07          '..'
0182 f0e0 ab 01              [ 4 ]                 ADDA    $01,X                    ; F0E0: AB 01          '..'
0183 f0e2 a7 01              [ 4 ]                 STAA    $01,X                    ; F0E2: A7 01          '..'
0184 f0e4 bd fa 7f           [ 6 ] ZF0E4           JSR     XINCHN1                  ; F0E4: BD FA 7F       '...'
0185 f0e7 81 3d              [ 2 ]                 CMPA    #'=                      ; F0E7: 81 3D          '.='
0186 f0e9 26 e9              [ 3 ]                 BNE     ZF0D4                    ; F0E9: 26 E9          '&.'
0187 f0eb 20 dc              [ 3 ]                 BRA     ZF0C9                    ; F0EB: 20 DC          ' .'
0188 f0ed 7f ff 60           [ 6 ] MAID            CLR     MFF60                    ; F0ED: 7F FF 60       '..`'
0189 f0f0 7f ff 54           [ 6 ]                 CLR     MFF54                    ; F0F0: 7F FF 54       '..T'
0190 f0f3 8e ff 8a           [ 3 ] MAID$           LDS     #XSTAK$                  ; F0F3: 8E FF 8A       '...'
0191 f0f6 ce fb c6           [ 3 ]                 LDX     #MFBC6                   ; F0F6: CE FB C6       '...'
0192 f0f9 bd fa 14           [ 6 ]                 JSR     XPDATA1                  ; F0F9: BD FA 14       '...'
0193 f0fc bd fa 40           [ 6 ]                 JSR     ZFA40                    ; F0FC: BD FA 40       '..@'
0194 f0ff 5d                 [ 2 ]                 TSTB                             ; F0FF: 5D             ']'
0195 f100 26 24              [ 3 ]                 BNE     ZF126                    ; F100: 26 24          '&$'
0196 f102 bd fa 2e           [ 6 ]                 JSR     ZFA2E                    ; F102: BD FA 2E       '...'
0197 f105 81 24              [ 2 ]                 CMPA    #'$                      ; F105: 81 24          '.$'
0198 f107 26 03              [ 3 ]                 BNE     ZF10C                    ; F107: 26 03          '&.'
0199 f109 7e f3 16           [ 3 ]                 JMP     ZF316                    ; F109: 7E F3 16       '~..'
0200 f10c 81 3b              [ 2 ] ZF10C           CMPA    #';                      ; F10C: 81 3B          '.;'
0201 f10e 26 03              [ 3 ]                 BNE     ZF113                    ; F10E: 26 03          '&.'
0202 f110 7e f2 74           [ 3 ]                 JMP     ZF274                    ; F110: 7E F2 74       '~.t'
0203 f113 81 4e              [ 2 ] ZF113           CMPA    #'N                      ; F113: 81 4E          '.N'
0204 f115 27 34              [ 3 ]                 BEQ     ZF14B                    ; F115: 27 34          ''4'
0205 f117 81 23              [ 2 ]                 CMPA    #'#                      ; F117: 81 23          '.#'
0206 f119 26 03              [ 3 ]                 BNE     ZF11E                    ; F119: 26 03          '&.'
0207 f11b 7e f0 89           [ 3 ]                 JMP     ZF089                    ; F11B: 7E F0 89       '~..'
0208 f11e ce fb c2           [ 3 ] ZF11E           LDX     #MFBC2                   ; F11E: CE FB C2       '...'
0209 f121 bd fa 16           [ 6 ]                 JSR     XPDAT1                   ; F121: BD FA 16       '...'
0210 f124 20 cd              [ 3 ] ZF124           BRA     MAID$                    ; F124: 20 CD          ' .'
0211 f126 81 3b              [ 2 ] ZF126           CMPA    #';                      ; F126: 81 3B          '.;'
0212 f128 27 6e              [ 3 ]                 BEQ     ZF198                    ; F128: 27 6E          ''n'
0213 f12a fe ff 08           [ 5 ]                 LDX     MFF08                    ; F12A: FE FF 08       '...'
0214 f12d 81 2f              [ 2 ]                 CMPA    #'/                      ; F12D: 81 2F          './'
0215 f12f 26 ed              [ 3 ]                 BNE     ZF11E                    ; F12F: 26 ED          '&.'
0216 f131 7e f1 cb           [ 3 ]                 JMP     ZF1CB                    ; F131: 7E F1 CB       '~..'
0217 f134 fe ff 08           [ 5 ] ZF134           LDX     MFF08                    ; F134: FE FF 08       '...'
0218 f137 27 01              [ 3 ]                 BEQ     ZF13A                    ; F137: 27 01          ''.'
0219 f139 09                 [ 3 ]                 DEX                              ; F139: 09             '.'
0220 f13a ff ff 51           [ 5 ] ZF13A           STX     MFF51                    ; F13A: FF FF 51       '..Q'
0221 f13d 86 ff              [ 2 ]                 LDAA    #$FF                     ; F13D: 86 FF          '..'
0222 f13f b7 ff 60           [ 4 ]                 STAA    MFF60                    ; F13F: B7 FF 60       '..`'
0223 f142 b7 ff 50           [ 4 ]                 STAA    MFF50                    ; F142: B7 FF 50       '..P'
0224 f145 b7 ff 54           [ 4 ]                 STAA    MFF54                    ; F145: B7 FF 54       '..T'
0225 f148 7e f4 06           [ 3 ]                 JMP     ZF406                    ; F148: 7E F4 06       '~..'
0226 f14b ce 00 00           [ 3 ] ZF14B           LDX     #M0000                   ; F14B: CE 00 00       '...'
0227 f14e 20 ea              [ 3 ]                 BRA     ZF13A                    ; F14E: 20 EA          ' .'
0228 f150 b6 ff 08           [ 4 ] ZF150           LDAA    MFF08                    ; F150: B6 FF 08       '...'
0229 f153 f6 ff 09           [ 4 ]                 LDAB    MFF09                    ; F153: F6 FF 09       '...'
0230 f156 bd f2 af           [ 6 ]                 JSR     ZF2AF                    ; F156: BD F2 AF       '...'
0231 f159 27 98              [ 3 ]                 BEQ     MAID$                    ; F159: 27 98          ''.'
0232 f15b ce ff 1f           [ 3 ]                 LDX     #BRKPT$                  ; F15B: CE FF 1F       '...'
0233 f15e a6 00              [ 4 ] ZF15E           LDAA    ,X                       ; F15E: A6 00          '..'
0234 f160 aa 01              [ 4 ]                 ORAA    $01,X                    ; F160: AA 01          '..'
0235 f162 26 0b              [ 3 ]                 BNE     ZF16F                    ; F162: 26 0B          '&.'
0236 f164 be ff 08           [ 5 ]                 LDS     MFF08                    ; F164: BE FF 08       '...'
0237 f167 af 00              [ 5 ]                 STS     ,X                       ; F167: AF 00          '..'
0238 f169 6f 20              [ 6 ]                 CLR     $20,X                    ; F169: 6F 20          'o '
0239 f16b 6f 21              [ 6 ]                 CLR     $21,X                    ; F16B: 6F 21          'o!'
0240 f16d 20 b5              [ 3 ]                 BRA     ZF124                    ; F16D: 20 B5          ' .'
0241 f16f 08                 [ 3 ] ZF16F           INX                              ; F16F: 08             '.'
0242 f170 08                 [ 3 ]                 INX                              ; F170: 08             '.'
0243 f171 8c ff 2f           [ 4 ]                 CPX     #MFF2F                   ; F171: 8C FF 2F       '../'
0244 f174 26 e8              [ 3 ]                 BNE     ZF15E                    ; F174: 26 E8          '&.'
0245 f176 20 a6              [ 3 ] ZF176           BRA     ZF11E                    ; F176: 20 A6          ' .'
0246 f178 ce ff 1f           [ 3 ] ZF178           LDX     #BRKPT$                  ; F178: CE FF 1F       '...'
0247 f17b a6 00              [ 4 ] ZF17B           LDAA    ,X                       ; F17B: A6 00          '..'
0248 f17d b1 ff 08           [ 4 ]                 CMPA    MFF08                    ; F17D: B1 FF 08       '...'
0249 f180 26 0d              [ 3 ]                 BNE     ZF18F                    ; F180: 26 0D          '&.'
0250 f182 a6 01              [ 4 ]                 LDAA    $01,X                    ; F182: A6 01          '..'
0251 f184 b1 ff 09           [ 4 ]                 CMPA    MFF09                    ; F184: B1 FF 09       '...'
0252 f187 26 06              [ 3 ]                 BNE     ZF18F                    ; F187: 26 06          '&.'
0253 f189 6f 00              [ 6 ]                 CLR     ,X                       ; F189: 6F 00          'o.'
0254 f18b 6f 01              [ 6 ]                 CLR     $01,X                    ; F18B: 6F 01          'o.'
0255 f18d 20 95              [ 3 ] ZF18D           BRA     ZF124                    ; F18D: 20 95          ' .'
0256 f18f 08                 [ 3 ] ZF18F           INX                              ; F18F: 08             '.'
0257 f190 08                 [ 3 ]                 INX                              ; F190: 08             '.'
0258 f191 8c ff 2f           [ 4 ]                 CPX     #MFF2F                   ; F191: 8C FF 2F       '../'
0259 f194 26 e5              [ 3 ]                 BNE     ZF17B                    ; F194: 26 E5          '&.'
0260 f196 20 de              [ 3 ]                 BRA     ZF176                    ; F196: 20 DE          ' .'
0261 f198 bd fa 7f           [ 6 ] ZF198           JSR     XINCHN1                  ; F198: BD FA 7F       '...'
0262 f19b 81 47              [ 2 ]                 CMPA    #'G                      ; F19B: 81 47          '.G'
0263 f19d 26 03              [ 3 ]                 BNE     ZF1A2                    ; F19D: 26 03          '&.'
0264 f19f 7e f3 f1           [ 3 ]                 JMP     ZF3F1                    ; F19F: 7E F3 F1       '~..'
0265 f1a2 81 4e              [ 2 ] ZF1A2           CMPA    #'N                      ; F1A2: 81 4E          '.N'
0266 f1a4 27 8e              [ 3 ]                 BEQ     ZF134                    ; F1A4: 27 8E          ''.'
0267 f1a6 81 50              [ 2 ]                 CMPA    #'P                      ; F1A6: 81 50          '.P'
0268 f1a8 26 03              [ 3 ]                 BNE     ZF1AD                    ; F1A8: 26 03          '&.'
0269 f1aa 7e f3 d1           [ 3 ]                 JMP     ZF3D1                    ; F1AA: 7E F3 D1       '~..'
0270 f1ad 81 55              [ 2 ] ZF1AD           CMPA    #'U                      ; F1AD: 81 55          '.U'
0271 f1af 27 c7              [ 3 ]                 BEQ     ZF178                    ; F1AF: 27 C7          ''.'
0272 f1b1 81 56              [ 2 ]                 CMPA    #'V                      ; F1B1: 81 56          '.V'
0273 f1b3 27 9b              [ 3 ]                 BEQ     ZF150                    ; F1B3: 27 9B          ''.'
0274 f1b5 81 57              [ 2 ]                 CMPA    #'W                      ; F1B5: 81 57          '.W'
0275 f1b7 26 bd              [ 3 ]                 BNE     ZF176                    ; F1B7: 26 BD          '&.'
0276 f1b9 20 77              [ 3 ]                 BRA     ZF232                    ; F1B9: 20 77          ' w'
0277 f1bb 08                 [ 3 ] ZF1BB           INX                              ; F1BB: 08             '.'
0278 f1bc bd fa 25           [ 6 ]                 JSR     ZFA25                    ; F1BC: BD FA 25       '..%'
0279 f1bf ff ff 56           [ 5 ] ZF1BF           STX     MFF56                    ; F1BF: FF FF 56       '..V'
0280 f1c2 ce ff 56           [ 3 ] ZF1C2           LDX     #MFF56                   ; F1C2: CE FF 56       '..V'
0281 f1c5 bd f9 dc           [ 6 ]                 JSR     ZF9DC                    ; F1C5: BD F9 DC       '...'
0282 f1c8 fe ff 56           [ 5 ]                 LDX     MFF56                    ; F1C8: FE FF 56       '..V'
0283 f1cb bd f9 6a           [ 6 ] ZF1CB           JSR     ZF96A                    ; F1CB: BD F9 6A       '..j'
0284 f1ce 2b 0e              [ 3 ]                 BMI     ZF1DE                    ; F1CE: 2B 0E          '+.'
0285 f1d0 81 0d              [ 2 ]                 CMPA    #$0D                     ; F1D0: 81 0D          '..'
0286 f1d2 27 b9              [ 3 ]                 BEQ     ZF18D                    ; F1D2: 27 B9          ''.'
0287 f1d4 81 0a              [ 2 ]                 CMPA    #$0A                     ; F1D4: 81 0A          '..'
0288 f1d6 27 e3              [ 3 ]                 BEQ     ZF1BB                    ; F1D6: 27 E3          ''.'
0289 f1d8 09                 [ 3 ]                 DEX                              ; F1D8: 09             '.'
0290 f1d9 bd fa 21           [ 6 ]                 JSR     XPCRLF1                  ; F1D9: BD FA 21       '..!'
0291 f1dc 20 e1              [ 3 ]                 BRA     ZF1BF                    ; F1DC: 20 E1          ' .'
0292 f1de 81 3b              [ 2 ] ZF1DE           CMPA    #';                      ; F1DE: 81 3B          '.;'
0293 f1e0 26 94              [ 3 ]                 BNE     ZF176                    ; F1E0: 26 94          '&.'
0294 f1e2 bd fa 7f           [ 6 ]                 JSR     XINCHN1                  ; F1E2: BD FA 7F       '...'
0295 f1e5 81 4f              [ 2 ]                 CMPA    #'O                      ; F1E5: 81 4F          '.O'
0296 f1e7 26 8d              [ 3 ]                 BNE     ZF176                    ; F1E7: 26 8D          '&.'
0297 f1e9 fe ff 56           [ 5 ]                 LDX     MFF56                    ; F1E9: FE FF 56       '..V'
0298 f1ec 08                 [ 3 ]                 INX                              ; F1EC: 08             '.'
0299 f1ed ff ff 5a           [ 5 ]                 STX     MFF5A                    ; F1ED: FF FF 5A       '..Z'
0300 f1f0 b6 ff 5a           [ 4 ]                 LDAA    MFF5A                    ; F1F0: B6 FF 5A       '..Z'
0301 f1f3 f6 ff 5b           [ 4 ]                 LDAB    MFF5B                    ; F1F3: F6 FF 5B       '..['
0302 f1f6 f0 ff 09           [ 4 ]                 SUBB    MFF09                    ; F1F6: F0 FF 09       '...'
0303 f1f9 b2 ff 08           [ 4 ]                 SBCA    MFF08                    ; F1F9: B2 FF 08       '...'
0304 f1fc 25 20              [ 3 ]                 BCS     ZF21E                    ; F1FC: 25 20          '% '
0305 f1fe 26 16              [ 3 ]                 BNE     ZF216                    ; F1FE: 26 16          '&.'
0306 f200 c1 81              [ 2 ]                 CMPB    #$81                     ; F200: C1 81          '..'
0307 f202 24 12              [ 3 ]                 BCC     ZF216                    ; F202: 24 12          '$.'
0308 f204 50                 [ 2 ]                 NEGB                             ; F204: 50             'P'
0309 f205 f7 ff 07           [ 4 ] ZF205           STAB    MFF07                    ; F205: F7 FF 07       '...'
0310 f208 bd f9 cb           [ 6 ]                 JSR     XPSPAC1                  ; F208: BD F9 CB       '...'
0311 f20b ce ff 07           [ 3 ]                 LDX     #MFF07                   ; F20B: CE FF 07       '...'
0312 f20e bd f9 c9           [ 6 ]                 JSR     XOUT2H1                  ; F20E: BD F9 C9       '...'
0313 f211 bd fa 21           [ 6 ] ZF211           JSR     XPCRLF1                  ; F211: BD FA 21       '..!'
0314 f214 20 ac              [ 3 ]                 BRA     ZF1C2                    ; F214: 20 AC          ' .'
0315 f216 ce fb 7d           [ 3 ] ZF216           LDX     #INVALID                 ; F216: CE FB 7D       '..}'
0316 f219 bd fa 16           [ 6 ]                 JSR     XPDAT1                   ; F219: BD FA 16       '...'
0317 f21c 20 f3              [ 3 ]                 BRA     ZF211                    ; F21C: 20 F3          ' .'
0318 f21e b6 ff 08           [ 4 ] ZF21E           LDAA    MFF08                    ; F21E: B6 FF 08       '...'
0319 f221 f6 ff 09           [ 4 ]                 LDAB    MFF09                    ; F221: F6 FF 09       '...'
0320 f224 f0 ff 5b           [ 4 ]                 SUBB    MFF5B                    ; F224: F0 FF 5B       '..['
0321 f227 b2 ff 5a           [ 4 ]                 SBCA    MFF5A                    ; F227: B2 FF 5A       '..Z'
0322 f22a 26 ea              [ 3 ]                 BNE     ZF216                    ; F22A: 26 EA          '&.'
0323 f22c 58                 [ 2 ]                 ASLB                             ; F22C: 58             'X'
0324 f22d 25 e7              [ 3 ]                 BCS     ZF216                    ; F22D: 25 E7          '%.'
0325 f22f 54                 [ 2 ]                 LSRB                             ; F22F: 54             'T'
0326 f230 20 d3              [ 3 ]                 BRA     ZF205                    ; F230: 20 D3          ' .'
0327 f232 b6 ff 08           [ 4 ] ZF232           LDAA    MFF08                    ; F232: B6 FF 08       '...'
0328 f235 26 61              [ 3 ]                 BNE     ZF298                    ; F235: 26 61          '&a'
0329 f237 b6 ff 09           [ 4 ]                 LDAA    MFF09                    ; F237: B6 FF 09       '...'
0330 f23a b7 ff 13           [ 4 ]                 STAA    MFF13                    ; F23A: B7 FF 13       '...'
0331 f23d fe ff 0a           [ 5 ]                 LDX     MFF0A                    ; F23D: FE FF 0A       '...'
0332 f240 ff ff 56           [ 5 ] ZF240           STX     MFF56                    ; F240: FF FF 56       '..V'
0333 f243 a6 00              [ 4 ]                 LDAA    ,X                       ; F243: A6 00          '..'
0334 f245 b8 ff 13           [ 4 ]                 EORA    MFF13                    ; F245: B8 FF 13       '...'
0335 f248 b4 ff 12           [ 4 ]                 ANDA    MFF12                    ; F248: B4 FF 12       '...'
0336 f24b 26 0f              [ 3 ]                 BNE     ZF25C                    ; F24B: 26 0F          '&.'
0337 f24d bd fa 21           [ 6 ]                 JSR     XPCRLF1                  ; F24D: BD FA 21       '..!'
0338 f250 ce ff 56           [ 3 ]                 LDX     #MFF56                   ; F250: CE FF 56       '..V'
0339 f253 bd f9 c7           [ 6 ]                 JSR     XOUT4H1                  ; F253: BD F9 C7       '...'
0340 f256 fe ff 56           [ 5 ]                 LDX     MFF56                    ; F256: FE FF 56       '..V'
0341 f259 bd f9 c9           [ 6 ]                 JSR     XOUT2H1                  ; F259: BD F9 C9       '...'
0342 f25c fe ff 56           [ 5 ] ZF25C           LDX     MFF56                    ; F25C: FE FF 56       '..V'
0343 f25f bc ff 0c           [ 6 ]                 CPX     MFF0C                    ; F25F: BC FF 0C       '...'
0344 f262 27 42              [ 3 ]                 BEQ     ZF2A6                    ; F262: 27 42          ''B'
0345 f264 08                 [ 3 ]                 INX                              ; F264: 08             '.'
0346 f265 20 d9              [ 3 ]                 BRA     ZF240                    ; F265: 20 D9          ' .'
0347 f267 7f ff 60           [ 6 ] ZF267           CLR     MFF60                    ; F267: 7F FF 60       '..`'
0348 f26a 7f ff 54           [ 6 ]                 CLR     MFF54                    ; F26A: 7F FF 54       '..T'
0349 f26d 20 37              [ 3 ]                 BRA     ZF2A6                    ; F26D: 20 37          ' 7'
0350 f26f 7f ff 5d           [ 6 ] ZF26F           CLR     MFF5D                    ; F26F: 7F FF 5D       '..]'
0351 f272 20 32              [ 3 ]                 BRA     ZF2A6                    ; F272: 20 32          ' 2'
0352 f274 bd fa 7f           [ 6 ] ZF274           JSR     XINCHN1                  ; F274: BD FA 7F       '...'
0353 f277 81 47              [ 2 ]                 CMPA    #'G                      ; F277: 81 47          '.G'
0354 f279 26 03              [ 3 ]                 BNE     ZF27E                    ; F279: 26 03          '&.'
0355 f27b 7e f3 e9           [ 3 ]                 JMP     ZF3E9                    ; F27B: 7E F3 E9       '~..'
0356 f27e 81 4e              [ 2 ] ZF27E           CMPA    #'N                      ; F27E: 81 4E          '.N'
0357 f280 26 03              [ 3 ]                 BNE     ZF285                    ; F280: 26 03          '&.'
0358 f282 7e f1 4b           [ 3 ]                 JMP     ZF14B                    ; F282: 7E F1 4B       '~.K'
0359 f285 81 50              [ 2 ] ZF285           CMPA    #'P                      ; F285: 81 50          '.P'
0360 f287 26 03              [ 3 ]                 BNE     ZF28C                    ; F287: 26 03          '&.'
0361 f289 7e f3 c5           [ 3 ]                 JMP     ZF3C5                    ; F289: 7E F3 C5       '~..'
0362 f28c 81 53              [ 2 ] ZF28C           CMPA    #'S                      ; F28C: 81 53          '.S'
0363 f28e 27 df              [ 3 ]                 BEQ     ZF26F                    ; F28E: 27 DF          ''.'
0364 f290 81 54              [ 2 ]                 CMPA    #'T                      ; F290: 81 54          '.T'
0365 f292 27 d3              [ 3 ]                 BEQ     ZF267                    ; F292: 27 D3          ''.'
0366 f294 81 55              [ 2 ]                 CMPA    #'U                      ; F294: 81 55          '.U'
0367 f296 27 03              [ 3 ]                 BEQ     ZF29B                    ; F296: 27 03          ''.'
0368 f298 7e f1 1e           [ 3 ] ZF298           JMP     ZF11E                    ; F298: 7E F1 1E       '~..'
0369 f29b ce ff 1f           [ 3 ] ZF29B           LDX     #BRKPT$                  ; F29B: CE FF 1F       '...'
0370 f29e 6f 00              [ 6 ] ZF29E           CLR     ,X                       ; F29E: 6F 00          'o.'
0371 f2a0 08                 [ 3 ]                 INX                              ; F2A0: 08             '.'
0372 f2a1 8c ff 4f           [ 4 ]                 CPX     #BKPIN$                  ; F2A1: 8C FF 4F       '..O'
0373 f2a4 26 f8              [ 3 ]                 BNE     ZF29E                    ; F2A4: 26 F8          '&.'
0374 f2a6 7e f0 f3           [ 3 ] ZF2A6           JMP     MAID$                    ; F2A6: 7E F0 F3       '~..'
0375 f2a9 b6 ff 16           [ 4 ] ZF2A9           LDAA    XREG$P                   ; F2A9: B6 FF 16       '...'
0376 f2ac f6 ff 17           [ 4 ]                 LDAB    MFF17                    ; F2AC: F6 FF 17       '...'
0377 f2af ce ff 1f           [ 3 ] ZF2AF           LDX     #BRKPT$                  ; F2AF: CE FF 1F       '...'
0378 f2b2 a1 00              [ 4 ] ZF2B2           CMPA    ,X                       ; F2B2: A1 00          '..'
0379 f2b4 26 05              [ 3 ]                 BNE     ZF2BB                    ; F2B4: 26 05          '&.'
0380 f2b6 e1 01              [ 4 ]                 CMPB    $01,X                    ; F2B6: E1 01          '..'
0381 f2b8 26 01              [ 3 ]                 BNE     ZF2BB                    ; F2B8: 26 01          '&.'
0382 f2ba 39                 [ 5 ]                 RTS                              ; F2BA: 39             '9'
0383 f2bb 08                 [ 3 ] ZF2BB           INX                              ; F2BB: 08             '.'
0384 f2bc 08                 [ 3 ]                 INX                              ; F2BC: 08             '.'
0385 f2bd 8c ff 2f           [ 4 ]                 CPX     #MFF2F                   ; F2BD: 8C FF 2F       '../'
0386 f2c0 26 f0              [ 3 ]                 BNE     ZF2B2                    ; F2C0: 26 F0          '&.'
0387 f2c2 86 ff              [ 2 ]                 LDAA    #$FF                     ; F2C2: 86 FF          '..'
0388 f2c4 39                 [ 5 ]                 RTS                              ; F2C4: 39             '9'
0389 f2c5 bd fa 9f           [ 6 ] ZF2C5           JSR     ZFA9F                    ; F2C5: BD FA 9F       '...'
0390 f2c8 bd f9 61           [ 6 ]                 JSR     ZF961                    ; F2C8: BD F9 61       '..a'
0391 f2cb 08                 [ 3 ]                 INX                              ; F2CB: 08             '.'
0392 f2cc 20 06              [ 3 ]                 BRA     ZF2D4                    ; F2CC: 20 06          ' .'
0393 f2ce bd fa 9f           [ 6 ] ZF2CE           JSR     ZFA9F                    ; F2CE: BD FA 9F       '...'
0394 f2d1 bd f9 6a           [ 6 ]                 JSR     ZF96A                    ; F2D1: BD F9 6A       '..j'
0395 f2d4 81 0d              [ 2 ] ZF2D4           CMPA    #$0D                     ; F2D4: 81 0D          '..'
0396 f2d6 27 ce              [ 3 ]                 BEQ     ZF2A6                    ; F2D6: 27 CE          ''.'
0397 f2d8 08                 [ 3 ]                 INX                              ; F2D8: 08             '.'
0398 f2d9 81 0a              [ 2 ]                 CMPA    #$0A                     ; F2D9: 81 0A          '..'
0399 f2db 27 03              [ 3 ]                 BEQ     ZF2E0                    ; F2DB: 27 03          ''.'
0400 f2dd 7e fa 21           [ 3 ]                 JMP     XPCRLF1                  ; F2DD: 7E FA 21       '~.!'
0401 f2e0 7e fa 25           [ 3 ] ZF2E0           JMP     ZFA25                    ; F2E0: 7E FA 25       '~.%'
0402 f2e3 bd fa a5           [ 6 ] ZF2E3           JSR     ZFAA5                    ; F2E3: BD FA A5       '...'
0403 f2e6 bd fa 21           [ 6 ]                 JSR     XPCRLF1                  ; F2E6: BD FA 21       '..!'
0404 f2e9 ce ff 16           [ 3 ]                 LDX     #XREG$P                  ; F2E9: CE FF 16       '...'
0405 f2ec 86 50              [ 2 ]                 LDAA    #'P                      ; F2EC: 86 50          '.P'
0406 f2ee 8d d5              [ 6 ]                 BSR     ZF2C5                    ; F2EE: 8D D5          '..'
0407 f2f0 86 58              [ 2 ]                 LDAA    #'X                      ; F2F0: 86 58          '.X'
0408 f2f2 8d d1              [ 6 ]                 BSR     ZF2C5                    ; F2F2: 8D D1          '..'
0409 f2f4 86 41              [ 2 ]                 LDAA    #'A                      ; F2F4: 86 41          '.A'
0410 f2f6 8d d6              [ 6 ]                 BSR     ZF2CE                    ; F2F6: 8D D6          '..'
0411 f2f8 86 42              [ 2 ]                 LDAA    #'B                      ; F2F8: 86 42          '.B'
0412 f2fa 8d d2              [ 6 ]                 BSR     ZF2CE                    ; F2FA: 8D D2          '..'
0413 f2fc 86 43              [ 2 ]                 LDAA    #'C                      ; F2FC: 86 43          '.C'
0414 f2fe 8d ce              [ 6 ]                 BSR     ZF2CE                    ; F2FE: 8D CE          '..'
0415 f300 86 53              [ 2 ]                 LDAA    #'S                      ; F300: 86 53          '.S'
0416 f302 8d c1              [ 6 ]                 BSR     ZF2C5                    ; F302: 8D C1          '..'
0417 f304 20 a0              [ 3 ]                 BRA     ZF2A6                    ; F304: 20 A0          ' .'
0418 f306 bd f9 cb           [ 6 ] ZF306           JSR     XPSPAC1                  ; F306: BD F9 CB       '...'
0419 f309 ce ff 12           [ 3 ]                 LDX     #MFF12                   ; F309: CE FF 12       '...'
0420 f30c bd f9 6a           [ 6 ]                 JSR     ZF96A                    ; F30C: BD F9 6A       '..j'
0421 f30f 2b 1d              [ 3 ]                 BMI     ZF32E                    ; F30F: 2B 1D          '+.'
0422 f311 bd f7 87           [ 6 ]                 JSR     XBEGEN1                  ; F311: BD F7 87       '...'
0423 f314 20 90              [ 3 ] ZF314           BRA     ZF2A6                    ; F314: 20 90          ' .'
0424 f316 bd fa 7f           [ 6 ] ZF316           JSR     XINCHN1                  ; F316: BD FA 7F       '...'
0425 f319 16                 [ 2 ]                 TAB                              ; F319: 16             '.'
0426 f31a c1 52              [ 2 ]                 CMPB    #'R                      ; F31A: C1 52          '.R'
0427 f31c 27 c5              [ 3 ]                 BEQ     ZF2E3                    ; F31C: 27 C5          ''.'
0428 f31e c1 56              [ 2 ]                 CMPB    #'V                      ; F31E: C1 56          '.V'
0429 f320 27 0f              [ 3 ]                 BEQ     ZF331                    ; F320: 27 0F          ''.'
0430 f322 c1 4d              [ 2 ]                 CMPB    #'M                      ; F322: C1 4D          '.M'
0431 f324 27 e0              [ 3 ]                 BEQ     ZF306                    ; F324: 27 E0          ''.'
0432 f326 c1 54              [ 2 ]                 CMPB    #'T                      ; F326: C1 54          '.T'
0433 f328 27 2c              [ 3 ]                 BEQ     ZF356                    ; F328: 27 2C          ''
0434 f32a c1 53              [ 2 ]                 CMPB    #'S                      ; F32A: C1 53          '.S'
0435 f32c 27 13              [ 3 ]                 BEQ     ZF341                    ; F32C: 27 13          ''.'
0436 f32e 7e f1 1e           [ 3 ] ZF32E           JMP     ZF11E                    ; F32E: 7E F1 1E       '~..'
0437 f331 bd fa 21           [ 6 ] ZF331           JSR     XPCRLF1                  ; F331: BD FA 21       '..!'
0438 f334 ce ff 1f           [ 3 ]                 LDX     #BRKPT$                  ; F334: CE FF 1F       '...'
0439 f337 c6 08              [ 2 ]                 LDAB    #$08                     ; F337: C6 08          '..'
0440 f339 bd f9 c7           [ 6 ] ZF339           JSR     XOUT4H1                  ; F339: BD F9 C7       '...'
0441 f33c 5a                 [ 2 ]                 DECB                             ; F33C: 5A             'Z'
0442 f33d 26 fa              [ 3 ]                 BNE     ZF339                    ; F33D: 26 FA          '&.'
0443 f33f 20 d3              [ 3 ]                 BRA     ZF314                    ; F33F: 20 D3          ' .'
0444 f341 ce fb a4           [ 3 ] ZF341           LDX     #STOPADDR                ; F341: CE FB A4       '...'
0445 f344 bd fa 14           [ 6 ]                 JSR     XPDATA1                  ; F344: BD FA 14       '...'
0446 f347 ce ff 5e           [ 3 ]                 LDX     #MFF5E                   ; F347: CE FF 5E       '..^'
0447 f34a bd f9 61           [ 6 ]                 JSR     ZF961                    ; F34A: BD F9 61       '..a'
0448 f34d 2b df              [ 3 ]                 BMI     ZF32E                    ; F34D: 2B DF          '+.'
0449 f34f 86 ff              [ 2 ]                 LDAA    #$FF                     ; F34F: 86 FF          '..'
0450 f351 b7 ff 5d           [ 4 ]                 STAA    MFF5D                    ; F351: B7 FF 5D       '..]'
0451 f354 20 be              [ 3 ]                 BRA     ZF314                    ; F354: 20 BE          ' .'
0452 f356 ce fb 44           [ 3 ] ZF356           LDX     #ENDADDR                 ; F356: CE FB 44       '..D'
0453 f359 bd fa 14           [ 6 ]                 JSR     XPDATA1                  ; F359: BD FA 14       '...'
0454 f35c ce ff 14           [ 3 ]                 LDX     #MFF14                   ; F35C: CE FF 14       '...'
0455 f35f bd f9 61           [ 6 ]                 JSR     ZF961                    ; F35F: BD F9 61       '..a'
0456 f362 2b ca              [ 3 ]                 BMI     ZF32E                    ; F362: 2B CA          '+.'
0457 f364 86 ff              [ 2 ]                 LDAA    #$FF                     ; F364: 86 FF          '..'
0458 f366 b7 ff 60           [ 4 ]                 STAA    MFF60                    ; F366: B7 FF 60       '..`'
0459 f369 7f ff 50           [ 6 ]                 CLR     MFF50                    ; F369: 7F FF 50       '..P'
0460 f36c 20 a6              [ 3 ]                 BRA     ZF314                    ; F36C: 20 A6          ' .'
0461 f36e 7d ff 4f           [ 6 ] ZF36E           TST     BKPIN$                   ; F36E: 7D FF 4F       '}.O'
0462 f371 26 2c              [ 3 ]                 BNE     ZF39F                    ; F371: 26 2C          '&
0463 f373 ce ff 1f           [ 3 ]                 LDX     #BRKPT$                  ; F373: CE FF 1F       '...'
0464 f376 ff ff 56           [ 5 ] ZF376           STX     MFF56                    ; F376: FF FF 56       '..V'
0465 f379 a6 00              [ 4 ]                 LDAA    ,X                       ; F379: A6 00          '..'
0466 f37b aa 01              [ 4 ]                 ORAA    $01,X                    ; F37B: AA 01          '..'
0467 f37d 27 14              [ 3 ]                 BEQ     ZF393                    ; F37D: 27 14          ''.'
0468 f37f ee 00              [ 5 ]                 LDX     ,X                       ; F37F: EE 00          '..'
0469 f381 a6 00              [ 4 ]                 LDAA    ,X                       ; F381: A6 00          '..'
0470 f383 c6 3f              [ 2 ]                 LDAB    #$3F                     ; F383: C6 3F          '.?'
0471 f385 e7 00              [ 4 ]                 STAB    ,X                       ; F385: E7 00          '..'
0472 f387 e1 00              [ 4 ]                 CMPB    ,X                       ; F387: E1 00          '..'
0473 f389 27 03              [ 3 ]                 BEQ     ZF38E                    ; F389: 27 03          ''.'
0474 f38b 7e f9 9c           [ 3 ]                 JMP     ZF99C                    ; F38B: 7E F9 9C       '~..'
0475 f38e fe ff 56           [ 5 ] ZF38E           LDX     MFF56                    ; F38E: FE FF 56       '..V'
0476 f391 a7 10              [ 4 ]                 STAA    $10,X                    ; F391: A7 10          '..'
0477 f393 08                 [ 3 ] ZF393           INX                              ; F393: 08             '.'
0478 f394 08                 [ 3 ]                 INX                              ; F394: 08             '.'
0479 f395 8c ff 2f           [ 4 ]                 CPX     #MFF2F                   ; F395: 8C FF 2F       '../'
0480 f398 26 dc              [ 3 ]                 BNE     ZF376                    ; F398: 26 DC          '&.'
0481 f39a 86 ff              [ 2 ]                 LDAA    #$FF                     ; F39A: 86 FF          '..'
0482 f39c b7 ff 4f           [ 4 ]                 STAA    BKPIN$                   ; F39C: B7 FF 4F       '..O'
0483 f39f 39                 [ 5 ] ZF39F           RTS                              ; F39F: 39             '9'
0484 f3a0 7d ff 4f           [ 6 ] ZF3A0           TST     BKPIN$                   ; F3A0: 7D FF 4F       '}.O'
0485 f3a3 27 1c              [ 3 ]                 BEQ     ZF3C1                    ; F3A3: 27 1C          ''.'
0486 f3a5 ce ff 1f           [ 3 ]                 LDX     #BRKPT$                  ; F3A5: CE FF 1F       '...'
0487 f3a8 ff ff 56           [ 5 ] ZF3A8           STX     MFF56                    ; F3A8: FF FF 56       '..V'
0488 f3ab a6 00              [ 4 ]                 LDAA    ,X                       ; F3AB: A6 00          '..'
0489 f3ad aa 01              [ 4 ]                 ORAA    $01,X                    ; F3AD: AA 01          '..'
0490 f3af 27 06              [ 3 ]                 BEQ     ZF3B7                    ; F3AF: 27 06          ''.'
0491 f3b1 a6 10              [ 4 ]                 LDAA    $10,X                    ; F3B1: A6 10          '..'
0492 f3b3 ee 00              [ 5 ]                 LDX     ,X                       ; F3B3: EE 00          '..'
0493 f3b5 a7 00              [ 4 ]                 STAA    ,X                       ; F3B5: A7 00          '..'
0494 f3b7 fe ff 56           [ 5 ] ZF3B7           LDX     MFF56                    ; F3B7: FE FF 56       '..V'
0495 f3ba 08                 [ 3 ]                 INX                              ; F3BA: 08             '.'
0496 f3bb 08                 [ 3 ]                 INX                              ; F3BB: 08             '.'
0497 f3bc 8c ff 2f           [ 4 ]                 CPX     #MFF2F                   ; F3BC: 8C FF 2F       '../'
0498 f3bf 26 e7              [ 3 ]                 BNE     ZF3A8                    ; F3BF: 26 E7          '&.'
0499 f3c1 7f ff 4f           [ 6 ] ZF3C1           CLR     BKPIN$                   ; F3C1: 7F FF 4F       '..O'
0500 f3c4 39                 [ 5 ]                 RTS                              ; F3C4: 39             '9'
0501 f3c5 7d ff 60           [ 6 ] ZF3C5           TST     MFF60                    ; F3C5: 7D FF 60       '}.`'
0502 f3c8 26 37              [ 3 ]                 BNE     ZF401                    ; F3C8: 26 37          '&7'
0503 f3ca bd f2 a9           [ 6 ]                 JSR     ZF2A9                    ; F3CA: BD F2 A9       '...'
0504 f3cd 27 32              [ 3 ]                 BEQ     ZF401                    ; F3CD: 27 32          ''2'
0505 f3cf 20 2b              [ 3 ]                 BRA     ZF3FC                    ; F3CF: 20 2B          ' +'
0506 f3d1 7d ff 60           [ 6 ] ZF3D1           TST     MFF60                    ; F3D1: 7D FF 60       '}.`'
0507 f3d4 26 05              [ 3 ]                 BNE     ZF3DB                    ; F3D4: 26 05          '&.'
0508 f3d6 bd f2 a9           [ 6 ]                 JSR     ZF2A9                    ; F3D6: BD F2 A9       '...'
0509 f3d9 27 03              [ 3 ]                 BEQ     ZF3DE                    ; F3D9: 27 03          ''.'
0510 f3db 7e f1 1e           [ 3 ] ZF3DB           JMP     ZF11E                    ; F3DB: 7E F1 1E       '~..'
0511 f3de be ff 08           [ 5 ] ZF3DE           LDS     MFF08                    ; F3DE: BE FF 08       '...'
0512 f3e1 34                 [ 3 ]                 DES                              ; F3E1: 34             '4'
0513 f3e2 af 20              [ 5 ]                 STS     $20,X                    ; F3E2: AF 20          '. '
0514 f3e4 8e ff 8a           [ 3 ]                 LDS     #XSTAK$                  ; F3E4: 8E FF 8A       '...'
0515 f3e7 20 18              [ 3 ]                 BRA     ZF401                    ; F3E7: 20 18          ' .'
0516 f3e9 fe ff 00           [ 5 ] ZF3E9           LDX     RAM_START                ; F3E9: FE FF 00       '...'
0517 f3ec 09                 [ 3 ]                 DEX                              ; F3EC: 09             '.'
0518 f3ed ee 00              [ 5 ]                 LDX     ,X                       ; F3ED: EE 00          '..'
0519 f3ef 20 03              [ 3 ]                 BRA     ZF3F4                    ; F3EF: 20 03          ' .'
0520 f3f1 fe ff 08           [ 5 ] ZF3F1           LDX     MFF08                    ; F3F1: FE FF 08       '...'
0521 f3f4 ff ff 16           [ 5 ] ZF3F4           STX     XREG$P                   ; F3F4: FF FF 16       '...'
0522 f3f7 7d ff 60           [ 6 ]                 TST     MFF60                    ; F3F7: 7D FF 60       '}.`'
0523 f3fa 2b 05              [ 3 ]                 BMI     ZF401                    ; F3FA: 2B 05          '+.'
0524 f3fc bd f3 6e           [ 6 ] ZF3FC           JSR     ZF36E                    ; F3FC: BD F3 6E       '..n'
0525 f3ff 20 05              [ 3 ]                 BRA     ZF406                    ; F3FF: 20 05          ' .'
0526 f401 86 ff              [ 2 ] ZF401           LDAA    #$FF                     ; F401: 86 FF          '..'
0527 f403 b7 ff 54           [ 4 ]                 STAA    MFF54                    ; F403: B7 FF 54       '..T'
0528 f406 c6 05              [ 2 ] ZF406           LDAB    #$05                     ; F406: C6 05          '..'
0529 f408 be ff 1d           [ 5 ]                 LDS     XREG$S                   ; F408: BE FF 1D       '...'
0530 f40b ce ff 16           [ 3 ]                 LDX     #XREG$P                  ; F40B: CE FF 16       '...'
0531 f40e a6 01              [ 4 ] ZF40E           LDAA    $01,X                    ; F40E: A6 01          '..'
0532 f410 36                 [ 3 ]                 PSHA                             ; F410: 36             '6'
0533 f411 a6 00              [ 4 ]                 LDAA    ,X                       ; F411: A6 00          '..'
0534 f413 36                 [ 3 ]                 PSHA                             ; F413: 36             '6'
0535 f414 08                 [ 3 ]                 INX                              ; F414: 08             '.'
0536 f415 08                 [ 3 ]                 INX                              ; F415: 08             '.'
0537 f416 5a                 [ 2 ]                 DECB                             ; F416: 5A             'Z'
0538 f417 c1 03              [ 2 ]                 CMPB    #$03                     ; F417: C1 03          '..'
0539 f419 26 f3              [ 3 ]                 BNE     ZF40E                    ; F419: 26 F3          '&.'
0540 f41b a6 00              [ 4 ] ZF41B           LDAA    ,X                       ; F41B: A6 00          '..'
0541 f41d 36                 [ 3 ]                 PSHA                             ; F41D: 36             '6'
0542 f41e 08                 [ 3 ]                 INX                              ; F41E: 08             '.'
0543 f41f 5a                 [ 2 ]                 DECB                             ; F41F: 5A             'Z'
0544 f420 26 f9              [ 3 ]                 BNE     ZF41B                    ; F420: 26 F9          '&.'
0545 f422 7d ff 5d           [ 6 ]                 TST     MFF5D                    ; F422: 7D FF 5D       '}.]'
0546 f425 27 11              [ 3 ]                 BEQ     ZF438                    ; F425: 27 11          ''.'
0547 f427 b6 ff 5f           [ 4 ]                 LDAA    MFF5F                    ; F427: B6 FF 5F       '.._'
0548 f42a b7 fc f8           [ 4 ]                 STAA    PIA_0                    ; F42A: B7 FC F8       '...'
0549 f42d b6 ff 5e           [ 4 ]                 LDAA    MFF5E                    ; F42D: B6 FF 5E       '..^'
0550 f430 b7 fc fa           [ 4 ]                 STAA    PIA_2                    ; F430: B7 FC FA       '...'
0551 f433 86 34              [ 2 ]                 LDAA    #$34                     ; F433: 86 34          '.4'
0552 f435 b7 fc f9           [ 4 ]                 STAA    PIA_1                    ; F435: B7 FC F9       '...'
0553 f438 7d ff 54           [ 6 ] ZF438           TST     MFF54                    ; F438: 7D FF 54       '}.T'
0554 f43b 27 0a              [ 3 ]                 BEQ     ZF447                    ; F43B: 27 0A          ''.'
0555 f43d 86 34              [ 2 ]                 LDAA    #$34                     ; F43D: 86 34          '.4'
0556 f43f b7 fc fb           [ 4 ]                 STAA    PIA_3                    ; F43F: B7 FC FB       '...'
0557 f442 86 3c              [ 2 ]                 LDAA    #$3C                     ; F442: 86 3C          '.<'
0558 f444 b7 fc fb           [ 4 ]                 STAA    PIA_3                    ; F444: B7 FC FB       '...'
0559 f447 3b                 [10 ] ZF447           RTI                              ; F447: 3B             ';'
0560 f448 86 3c              [ 2 ] MF448           LDAA    #$3C                     ; F448: 86 3C          '.<'
0561 f44a b7 fc f9           [ 4 ]                 STAA    PIA_1                    ; F44A: B7 FC F9       '...'
0562 f44d c6 07              [ 2 ]                 LDAB    #$07                     ; F44D: C6 07          '..'
0563 f44f ce ff 1c           [ 3 ]                 LDX     #XREG$C                  ; F44F: CE FF 1C       '...'
0564 f452 32                 [ 4 ] ZF452           PULA                             ; F452: 32             '2'
0565 f453 a7 00              [ 4 ]                 STAA    ,X                       ; F453: A7 00          '..'
0566 f455 09                 [ 3 ]                 DEX                              ; F455: 09             '.'
0567 f456 5a                 [ 2 ]                 DECB                             ; F456: 5A             'Z'
0568 f457 26 f9              [ 3 ]                 BNE     ZF452                    ; F457: 26 F9          '&.'
0569 f459 bf ff 1d           [ 5 ]                 STS     XREG$S                   ; F459: BF FF 1D       '...'
0570 f45c 8e ff 8a           [ 3 ]                 LDS     #XSTAK$                  ; F45C: 8E FF 8A       '...'
0571 f45f 8d 35              [ 6 ]                 BSR     ZF496                    ; F45F: 8D 35          '.5'
0572 f461 fe ff 16           [ 5 ]                 LDX     XREG$P                   ; F461: FE FF 16       '...'
0573 f464 09                 [ 3 ]                 DEX                              ; F464: 09             '.'
0574 f465 ff ff 16           [ 5 ]                 STX     XREG$P                   ; F465: FF FF 16       '...'
0575 f468 7d ff 4f           [ 6 ]                 TST     BKPIN$                   ; F468: 7D FF 4F       '}.O'
0576 f46b 27 14              [ 3 ]                 BEQ     ZF481                    ; F46B: 27 14          ''.'
0577 f46d bd f3 a0           [ 6 ]                 JSR     ZF3A0                    ; F46D: BD F3 A0       '...'
0578 f470 bd f2 a9           [ 6 ]                 JSR     ZF2A9                    ; F470: BD F2 A9       '...'
0579 f473 26 0c              [ 3 ]                 BNE     ZF481                    ; F473: 26 0C          '&.'
0580 f475 ae 20              [ 5 ]                 LDS     $20,X                    ; F475: AE 20          '. '
0581 f477 27 14              [ 3 ]                 BEQ     ZF48D                    ; F477: 27 14          ''.'
0582 f479 34                 [ 3 ]                 DES                              ; F479: 34             '4'
0583 f47a af 20              [ 5 ]                 STS     $20,X                    ; F47A: AF 20          '. '
0584 f47c 8e ff 8a           [ 3 ]                 LDS     #XSTAK$                  ; F47C: 8E FF 8A       '...'
0585 f47f 20 80              [ 3 ]                 BRA     ZF401                    ; F47F: 20 80          ' .'
0586 f481 ce fb c8           [ 3 ] ZF481           LDX     #BKPTERR                 ; F481: CE FB C8       '...'
0587 f484 bd fa 14           [ 6 ]                 JSR     XPDATA1                  ; F484: BD FA 14       '...'
0588 f487 7f ff 60           [ 6 ]                 CLR     MFF60                    ; F487: 7F FF 60       '..`'
0589 f48a 7f ff 54           [ 6 ]                 CLR     MFF54                    ; F48A: 7F FF 54       '..T'
0590 f48d 8e ff 8a           [ 3 ] ZF48D           LDS     #XSTAK$                  ; F48D: 8E FF 8A       '...'
0591 f490 bd fa a5           [ 6 ]                 JSR     ZFAA5                    ; F490: BD FA A5       '...'
0592 f493 7e f0 f3           [ 3 ]                 JMP     MAID$                    ; F493: 7E F0 F3       '~..'
0593 f496 ce ff 16           [ 3 ] ZF496           LDX     #XREG$P                  ; F496: CE FF 16       '...'
0594 f499 a6 00              [ 4 ]                 LDAA    ,X                       ; F499: A6 00          '..'
0595 f49b e6 01              [ 4 ]                 LDAB    $01,X                    ; F49B: E6 01          '..'
0596 f49d a7 01              [ 4 ]                 STAA    $01,X                    ; F49D: A7 01          '..'
0597 f49f e7 00              [ 4 ]                 STAB    ,X                       ; F49F: E7 00          '..'
0598 f4a1 a6 02              [ 4 ]                 LDAA    $02,X                    ; F4A1: A6 02          '..'
0599 f4a3 e6 03              [ 4 ]                 LDAB    $03,X                    ; F4A3: E6 03          '..'
0600 f4a5 a7 03              [ 4 ]                 STAA    $03,X                    ; F4A5: A7 03          '..'
0601 f4a7 e7 02              [ 4 ]                 STAB    $02,X                    ; F4A7: E7 02          '..'
0602 f4a9 39                 [ 5 ]                 RTS                              ; F4A9: 39             '9'
0603 f4aa 86 3c              [ 2 ] MF4AA           LDAA    #$3C                     ; F4AA: 86 3C          '.<'
0604 f4ac b7 fc f9           [ 4 ]                 STAA    PIA_1                    ; F4AC: B7 FC F9       '...'
0605 f4af 86 34              [ 2 ]                 LDAA    #$34                     ; F4AF: 86 34          '.4'
0606 f4b1 b7 fc fb           [ 4 ]                 STAA    PIA_3                    ; F4B1: B7 FC FB       '...'
0607 f4b4 30                 [ 3 ]                 TSX                              ; F4B4: 30             '0'
0608 f4b5 a6 00              [ 4 ]                 LDAA    ,X                       ; F4B5: A6 00          '..'
0609 f4b7 85 10              [ 2 ]                 BITA    #$10                     ; F4B7: 85 10          '..'
0610 f4b9 26 1c              [ 3 ]                 BNE     ZF4D7                    ; F4B9: 26 1C          '&.'
0611 f4bb 7d fc fd           [ 6 ]                 TST     PROM_1                   ; F4BB: 7D FC FD       '}..'
0612 f4be 2a 17              [ 3 ]                 BPL     ZF4D7                    ; F4BE: 2A 17          '*.'
0613 f4c0 c6 07              [ 2 ]                 LDAB    #$07                     ; F4C0: C6 07          '..'
0614 f4c2 a6 06              [ 4 ] ZF4C2           LDAA    $06,X                    ; F4C2: A6 06          '..'
0615 f4c4 36                 [ 3 ]                 PSHA                             ; F4C4: 36             '6'
0616 f4c5 09                 [ 3 ]                 DEX                              ; F4C5: 09             '.'
0617 f4c6 5a                 [ 2 ]                 DECB                             ; F4C6: 5A             'Z'
0618 f4c7 26 f9              [ 3 ]                 BNE     ZF4C2                    ; F4C7: 26 F9          '&.'
0619 f4c9 8a 10              [ 2 ]                 ORAA    #$10                     ; F4C9: 8A 10          '..'
0620 f4cb 31                 [ 3 ]                 INS                              ; F4CB: 31             '1'
0621 f4cc 36                 [ 3 ]                 PSHA                             ; F4CC: 36             '6'
0622 f4cd b6 ff f8           [ 4 ]                 LDAA    IRQ$VC                   ; F4CD: B6 FF F8       '...'
0623 f4d0 a7 05              [ 4 ]                 STAA    $05,X                    ; F4D0: A7 05          '..'
0624 f4d2 b6 ff f9           [ 4 ]                 LDAA    MFFF9                    ; F4D2: B6 FF F9       '...'
0625 f4d5 a7 06              [ 4 ]                 STAA    $06,X                    ; F4D5: A7 06          '..'
0626 f4d7 c6 07              [ 2 ] ZF4D7           LDAB    #$07                     ; F4D7: C6 07          '..'
0627 f4d9 ce ff 1c           [ 3 ]                 LDX     #XREG$C                  ; F4D9: CE FF 1C       '...'
0628 f4dc 32                 [ 4 ] ZF4DC           PULA                             ; F4DC: 32             '2'
0629 f4dd a7 00              [ 4 ]                 STAA    ,X                       ; F4DD: A7 00          '..'
0630 f4df 09                 [ 3 ]                 DEX                              ; F4DF: 09             '.'
0631 f4e0 5a                 [ 2 ]                 DECB                             ; F4E0: 5A             'Z'
0632 f4e1 26 f9              [ 3 ]                 BNE     ZF4DC                    ; F4E1: 26 F9          '&.'
0633 f4e3 bf ff 1d           [ 5 ]                 STS     XREG$S                   ; F4E3: BF FF 1D       '...'
0634 f4e6 8e ff 8a           [ 3 ]                 LDS     #XSTAK$                  ; F4E6: 8E FF 8A       '...'
0635 f4e9 8d ab              [ 6 ]                 BSR     ZF496                    ; F4E9: 8D AB          '..'
0636 f4eb bd f3 a0           [ 6 ]                 JSR     ZF3A0                    ; F4EB: BD F3 A0       '...'
0637 f4ee bd f6 1b           [ 6 ]                 JSR     ZF61B                    ; F4EE: BD F6 1B       '...'
0638 f4f1 b6 fc f9           [ 4 ]                 LDAA    PIA_1                    ; F4F1: B6 FC F9       '...'
0639 f4f4 f6 fc f8           [ 4 ]                 LDAB    PIA_0                    ; F4F4: F6 FC F8       '...'
0640 f4f7 4d                 [ 2 ]                 TSTA                             ; F4F7: 4D             'M'
0641 f4f8 2b 42              [ 3 ]                 BMI     ZF53C                    ; F4F8: 2B 42          '+B'
0642 f4fa b6 fc fb           [ 4 ]                 LDAA    PIA_3                    ; F4FA: B6 FC FB       '...'
0643 f4fd f6 fc fa           [ 4 ]                 LDAB    PIA_2                    ; F4FD: F6 FC FA       '...'
0644 f500 4d                 [ 2 ]                 TSTA                             ; F500: 4D             'M'
0645 f501 2b 27              [ 3 ]                 BMI     ZF52A                    ; F501: 2B 27          '+''
0646 f503 7d ff 60           [ 6 ]                 TST     MFF60                    ; F503: 7D FF 60       '}.`'
0647 f506 27 2e              [ 3 ]                 BEQ     ZF536                    ; F506: 27 2E          ''.'
0648 f508 bd fa a5           [ 6 ]                 JSR     ZFAA5                    ; F508: BD FA A5       '...'
0649 f50b 7d ff 50           [ 6 ]                 TST     MFF50                    ; F50B: 7D FF 50       '}.P'
0650 f50e 27 0c              [ 3 ]                 BEQ     ZF51C                    ; F50E: 27 0C          ''.'
0651 f510 fe ff 51           [ 5 ]                 LDX     MFF51                    ; F510: FE FF 51       '..Q'
0652 f513 27 0f              [ 3 ]                 BEQ     ZF524                    ; F513: 27 0F          ''.'
0653 f515 09                 [ 3 ]                 DEX                              ; F515: 09             '.'
0654 f516 ff ff 51           [ 5 ]                 STX     MFF51                    ; F516: FF FF 51       '..Q'
0655 f519 7e f4 06           [ 3 ] ZF519           JMP     ZF406                    ; F519: 7E F4 06       '~..'
0656 f51c fe ff 16           [ 5 ] ZF51C           LDX     XREG$P                   ; F51C: FE FF 16       '...'
0657 f51f bc ff 14           [ 6 ]                 CPX     MFF14                    ; F51F: BC FF 14       '...'
0658 f522 26 f5              [ 3 ]                 BNE     ZF519                    ; F522: 26 F5          '&.'
0659 f524 7f ff 50           [ 6 ] ZF524           CLR     MFF50                    ; F524: 7F FF 50       '..P'
0660 f527 7e f2 67           [ 3 ]                 JMP     ZF267                    ; F527: 7E F2 67       '~.g'
0661 f52a ce fb 93           [ 3 ] ZF52A           LDX     #STOPONADDR              ; F52A: CE FB 93       '...'
0662 f52d bd fa 14           [ 6 ]                 JSR     XPDATA1                  ; F52D: BD FA 14       '...'
0663 f530 bd fa a8           [ 6 ]                 JSR     ZFAA8                    ; F530: BD FA A8       '...'
0664 f533 7e f0 f3           [ 3 ]                 JMP     MAID$                    ; F533: 7E F0 F3       '~..'
0665 f536 7f ff 54           [ 6 ] ZF536           CLR     MFF54                    ; F536: 7F FF 54       '..T'
0666 f539 7e f3 fc           [ 3 ]                 JMP     ZF3FC                    ; F539: 7E F3 FC       '~..'
0667 f53c ce fb af           [ 3 ] ZF53C           LDX     #ABORTED                 ; F53C: CE FB AF       '...'
0668 f53f bd fa 14           [ 6 ]                 JSR     XPDATA1                  ; F53F: BD FA 14       '...'
0669 f542 bd fa a8           [ 6 ]                 JSR     ZFAA8                    ; F542: BD FA A8       '...'
0670 f545 20 23              [ 3 ]                 BRA     ZF56A                    ; F545: 20 23          ' #'
0671 f547 01                 [ 2 ] PWRUP1          NOP                              ; F547: 01             '.'
0672 f548 0f                 [ 2 ]                 SEI                              ; F548: 0F             '.'
0673 f549 4f                 [ 2 ]                 CLRA                             ; F549: 4F             'O'
0674 f54a ce 00 00           [ 3 ]                 LDX     #M0000                   ; F54A: CE 00 00       '...'
0675 f54d ff ff 0e           [ 5 ]                 STX     MFF0E                    ; F54D: FF FF 0E       '...'
0676 f550 ff ff 10           [ 5 ]                 STX     MFF10                    ; F550: FF FF 10       '...'
0677 f553 ff ff f6           [ 5 ]                 STX     MFFF6                    ; F553: FF FF F6       '...'
0678 f556 b7 ff 02           [ 4 ]                 STAA    MFF02                    ; F556: B7 FF 02       '...'
0679 f559 86 03              [ 2 ]                 LDAA    #$03                     ; F559: 86 03          '..'
0680 f55b b7 fc f4           [ 4 ]                 STAA    ACIA_0                   ; F55B: B7 FC F4       '...'
0681 f55e ce 83 ff           [ 3 ]                 LDX     #M83FF                   ; F55E: CE 83 FF       '...'
0682 f561 ff ff 00           [ 5 ]                 STX     RAM_START                ; F561: FF FF 00       '...'
0683 f564 8e ff 8a           [ 3 ]                 LDS     #XSTAK$                  ; F564: 8E FF 8A       '...'
0684 f567 bf ff 1d           [ 5 ]                 STS     XREG$S                   ; F567: BF FF 1D       '...'
0685 f56a ce f4 aa           [ 3 ] ZF56A           LDX     #MF4AA                   ; F56A: CE F4 AA       '...'
0686 f56d ff ff fc           [ 5 ]                 STX     NMI$VC                   ; F56D: FF FF FC       '...'
0687 f570 ce f4 48           [ 3 ]                 LDX     #MF448                   ; F570: CE F4 48       '..H'
0688 f573 ff ff fa           [ 5 ]                 STX     SWI$VC                   ; F573: FF FF FA       '...'
0689 f576 fe ff 00           [ 5 ]                 LDX     RAM_START                ; F576: FE FF 00       '...'
0690 f579 86 07              [ 2 ]                 LDAA    #$07                     ; F579: 86 07          '..'
0691 f57b 09                 [ 3 ] ZF57B           DEX                              ; F57B: 09             '.'
0692 f57c 4a                 [ 2 ]                 DECA                             ; F57C: 4A             'J'
0693 f57d 26 fc              [ 3 ]                 BNE     ZF57B                    ; F57D: 26 FC          '&.'
0694 f57f ee 00              [ 5 ]                 LDX     ,X                       ; F57F: EE 00          '..'
0695 f581 ff ff f8           [ 5 ]                 STX     IRQ$VC                   ; F581: FF FF F8       '...'
0696 f584 ce ff 1f           [ 3 ]                 LDX     #BRKPT$                  ; F584: CE FF 1F       '...'
0697 f587 6f 00              [ 6 ] ZF587           CLR     ,X                       ; F587: 6F 00          'o.'
0698 f589 08                 [ 3 ]                 INX                              ; F589: 08             '.'
0699 f58a 8c ff 63           [ 4 ]                 CPX     #MFF63                   ; F58A: 8C FF 63       '..c'
0700 f58d 26 f8              [ 3 ]                 BNE     ZF587                    ; F58D: 26 F8          '&.'
0701 f58f ce fc f8           [ 3 ]                 LDX     #PIA_0                   ; F58F: CE FC F8       '...'
0702 f592 86 38              [ 2 ]                 LDAA    #$38                     ; F592: 86 38          '.8'
0703 f594 a7 01              [ 4 ]                 STAA    $01,X                    ; F594: A7 01          '..'
0704 f596 86 30              [ 2 ]                 LDAA    #$30                     ; F596: 86 30          '.0'
0705 f598 a7 03              [ 4 ]                 STAA    $03,X                    ; F598: A7 03          '..'
0706 f59a 86 ff              [ 2 ]                 LDAA    #$FF                     ; F59A: 86 FF          '..'
0707 f59c a7 00              [ 4 ]                 STAA    ,X                       ; F59C: A7 00          '..'
0708 f59e a7 02              [ 4 ]                 STAA    $02,X                    ; F59E: A7 02          '..'
0709 f5a0 86 34              [ 2 ]                 LDAA    #$34                     ; F5A0: 86 34          '.4'
0710 f5a2 a7 03              [ 4 ]                 STAA    $03,X                    ; F5A2: A7 03          '..'
0711 f5a4 86 3c              [ 2 ]                 LDAA    #$3C                     ; F5A4: 86 3C          '.<'
0712 f5a6 a7 01              [ 4 ]                 STAA    $01,X                    ; F5A6: A7 01          '..'
0713 f5a8 b6 fc fd           [ 4 ]                 LDAA    PROM_1                   ; F5A8: B6 FC FD       '...'
0714 f5ab 84 3f              [ 2 ]                 ANDA    #$3F                     ; F5AB: 84 3F          '.?'
0715 f5ad b7 fc f4           [ 4 ]                 STAA    ACIA_0                   ; F5AD: B7 FC F4       '...'
0716 f5b0 8d 70              [ 6 ]                 BSR     ZF622                    ; F5B0: 8D 70          '.p'
0717 f5b2 86 3a              [ 2 ]                 LDAA    #$3A                     ; F5B2: 86 3A          '.:'
0718 f5b4 8d 6e              [ 6 ]                 BSR     ZF624                    ; F5B4: 8D 6E          '.n'
0719 f5b6 8d 6a              [ 6 ]                 BSR     ZF622                    ; F5B6: 8D 6A          '.j'
0720 f5b8 86 39              [ 2 ]                 LDAA    #$39                     ; F5B8: 86 39          '.9'
0721 f5ba 8d 68              [ 6 ]                 BSR     ZF624                    ; F5BA: 8D 68          '.h'
0722 f5bc ce fb bb           [ 3 ]                 LDX     #MFBBB                   ; F5BC: CE FB BB       '...'
0723 f5bf bd fa 16           [ 6 ]                 JSR     XPDAT1                   ; F5BF: BD FA 16       '...'
0724 f5c2 8e ff 8a           [ 3 ] REENT3          LDS     #XSTAK$                  ; F5C2: 8E FF 8A       '...'
0725 f5c5 8d 54              [ 6 ]                 BSR     ZF61B                    ; F5C5: 8D 54          '.T'
0726 f5c7 ce fb 2f           [ 3 ]                 LDX     #GREETING                ; F5C7: CE FB 2F       '../'
0727 f5ca bd fa 14           [ 6 ]                 JSR     XPDATA1                  ; F5CA: BD FA 14       '...'
0728 f5cd b6 fc f5           [ 4 ]                 LDAA    ACIA_1                   ; F5CD: B6 FC F5       '...'
0729 f5d0 ce ff 03           [ 3 ]                 LDX     #MFF03                   ; F5D0: CE FF 03       '...'
0730 f5d3 bd fa 2c           [ 6 ] ZF5D3           JSR     ZFA2C                    ; F5D3: BD FA 2C       '..
0731 f5d6 a7 00              [ 4 ]                 STAA    ,X                       ; F5D6: A7 00          '..'
0732 f5d8 08                 [ 3 ]                 INX                              ; F5D8: 08             '.'
0733 f5d9 8c ff 07           [ 4 ]                 CPX     #MFF07                   ; F5D9: 8C FF 07       '...'
0734 f5dc 26 f5              [ 3 ]                 BNE     ZF5D3                    ; F5DC: 26 F5          '&.'
0735 f5de ce fa ed           [ 3 ]                 LDX     #MFAED                   ; F5DE: CE FA ED       '...'
0736 f5e1 8d 11              [ 6 ] ZF5E1           BSR     ZF5F4                    ; F5E1: 8D 11          '..'
0737 f5e3 8c fb 2f           [ 4 ]                 CPX     #GREETING                ; F5E3: 8C FB 2F       '../'
0738 f5e6 26 f9              [ 3 ]                 BNE     ZF5E1                    ; F5E6: 26 F9          '&.'
0739 f5e8 fe ff 0e           [ 5 ]                 LDX     MFF0E                    ; F5E8: FE FF 0E       '...'
0740 f5eb bc ff 10           [ 6 ] ZF5EB           CPX     MFF10                    ; F5EB: BC FF 10       '...'
0741 f5ee 27 d2              [ 3 ]                 BEQ     REENT3                   ; F5EE: 27 D2          ''.'
0742 f5f0 8d 02              [ 6 ]                 BSR     ZF5F4                    ; F5F0: 8D 02          '..'
0743 f5f2 20 f7              [ 3 ]                 BRA     ZF5EB                    ; F5F2: 20 F7          ' .'
0744 f5f4 b6 ff 03           [ 4 ] ZF5F4           LDAA    MFF03                    ; F5F4: B6 FF 03       '...'
0745 f5f7 a1 00              [ 4 ]                 CMPA    ,X                       ; F5F7: A1 00          '..'
0746 f5f9 26 19              [ 3 ]                 BNE     ZF614                    ; F5F9: 26 19          '&.'
0747 f5fb b6 ff 04           [ 4 ]                 LDAA    MFF04                    ; F5FB: B6 FF 04       '...'
0748 f5fe a1 01              [ 4 ]                 CMPA    $01,X                    ; F5FE: A1 01          '..'
0749 f600 26 12              [ 3 ]                 BNE     ZF614                    ; F600: 26 12          '&.'
0750 f602 b6 ff 05           [ 4 ]                 LDAA    MFF05                    ; F602: B6 FF 05       '...'
0751 f605 a1 02              [ 4 ]                 CMPA    $02,X                    ; F605: A1 02          '..'
0752 f607 26 0b              [ 3 ]                 BNE     ZF614                    ; F607: 26 0B          '&.'
0753 f609 b6 ff 06           [ 4 ]                 LDAA    MFF06                    ; F609: B6 FF 06       '...'
0754 f60c a1 03              [ 4 ]                 CMPA    $03,X                    ; F60C: A1 03          '..'
0755 f60e 26 04              [ 3 ]                 BNE     ZF614                    ; F60E: 26 04          '&.'
0756 f610 ee 04              [ 5 ]                 LDX     $04,X                    ; F610: EE 04          '..'
0757 f612 6e 00              [ 3 ]                 JMP     ,X                       ; F612: 6E 00          'n.'
0758 f614 08                 [ 3 ] ZF614           INX                              ; F614: 08             '.'
0759 f615 08                 [ 3 ]                 INX                              ; F615: 08             '.'
0760 f616 08                 [ 3 ]                 INX                              ; F616: 08             '.'
0761 f617 08                 [ 3 ]                 INX                              ; F617: 08             '.'
0762 f618 08                 [ 3 ]                 INX                              ; F618: 08             '.'
0763 f619 08                 [ 3 ]                 INX                              ; F619: 08             '.'
0764 f61a 39                 [ 5 ]                 RTS                              ; F61A: 39             '9'
0765 f61b ce 30 d4           [ 3 ] ZF61B           LDX     #M30D4                   ; F61B: CE 30 D4       '.0.'
0766 f61e 09                 [ 3 ] ZF61E           DEX                              ; F61E: 09             '.'
0767 f61f 26 fd              [ 3 ]                 BNE     ZF61E                    ; F61F: 26 FD          '&.'
0768 f621 39                 [ 5 ]                 RTS                              ; F621: 39             '9'
0769 f622 86 10              [ 2 ] ZF622           LDAA    #$10                     ; F622: 86 10          '..'
0770 f624 7e f9 cf           [ 3 ] ZF624           JMP     OUTCNSF                  ; F624: 7E F9 CF       '~..'
0771 f627 bd f9 cb           [ 6 ] TERM            JSR     XPSPAC1                  ; F627: BD F9 CB       '...'
0772 f62a ce ff f6           [ 3 ]                 LDX     #MFFF6                   ; F62A: CE FF F6       '...'
0773 f62d bd f9 61           [ 6 ]                 JSR     ZF961                    ; F62D: BD F9 61       '..a'
0774 f630 2b f5              [ 3 ]                 BMI     TERM                     ; F630: 2B F5          '+.'
0775 f632 20 8e              [ 3 ]                 BRA     REENT3                   ; F632: 20 8E          ' .'
0776 f634 ce fb f9           [ 3 ] ZF634           LDX     #HD_TXT                  ; F634: CE FB F9       '...'
0777 f637 bd fa 14           [ 6 ]                 JSR     XPDATA1                  ; F637: BD FA 14       '...'
0778 f63a ce ff 8d           [ 3 ]                 LDX     #MFF8D                   ; F63A: CE FF 8D       '...'
0779 f63d bd fa 7f           [ 6 ] ZF63D           JSR     XINCHN1                  ; F63D: BD FA 7F       '...'
0780 f640 81 20              [ 2 ]                 CMPA    #$20                     ; F640: 81 20          '. '
0781 f642 2d 04              [ 3 ]                 BLT     ZF648                    ; F642: 2D 04          '-.'
0782 f644 81 61              [ 2 ]                 CMPA    #$61                     ; F644: 81 61          '.a'
0783 f646 2d 02              [ 3 ]                 BLT     ZF64A                    ; F646: 2D 02          '-.'
0784 f648 86 20              [ 2 ] ZF648           LDAA    #$20                     ; F648: 86 20          '. '
0785 f64a a7 00              [ 4 ] ZF64A           STAA    ,X                       ; F64A: A7 00          '..'
0786 f64c 08                 [ 3 ]                 INX                              ; F64C: 08             '.'
0787 f64d 8c ff 93           [ 4 ]                 CPX     #MFF93                   ; F64D: 8C FF 93       '...'
0788 f650 26 eb              [ 3 ]                 BNE     ZF63D                    ; F650: 26 EB          '&.'
0789 f652 bd f7 0c           [ 6 ]                 JSR     ZF70C                    ; F652: BD F7 0C       '...'
0790 f655 0d                 [ 2 ]                 SEC                              ; F655: 0D             '.'
0791 f656 79 ff 62           [ 6 ]                 ROL     MFF62                    ; F656: 79 FF 62       'y.b'
0792 f659 7d ff 02           [ 6 ]                 TST     MFF02                    ; F659: 7D FF 02       '}..'
0793 f65c 2a 07              [ 3 ]                 BPL     ZF665                    ; F65C: 2A 07          '*.'
0794 f65e 8d c2              [ 6 ]                 BSR     ZF622                    ; F65E: 8D C2          '..'
0795 f660 86 30              [ 2 ]                 LDAA    #$30                     ; F660: 86 30          '.0'
0796 f662 bd f9 e2           [ 6 ]                 JSR     XOUTCH1                  ; F662: BD F9 E2       '...'
0797 f665 86 12              [ 2 ] ZF665           LDAA    #$12                     ; F665: 86 12          '..'
0798 f667 bd f9 e2           [ 6 ]                 JSR     XOUTCH1                  ; F667: BD F9 E2       '...'
0799 f66a bd f7 02           [ 6 ]                 JSR     ZF702                    ; F66A: BD F7 02       '...'
0800 f66d c6 83              [ 2 ]                 LDAB    #$83                     ; F66D: C6 83          '..'
0801 f66f ce fb e9           [ 3 ]                 LDX     #S0_TXT                  ; F66F: CE FB E9       '...'
0802 f672 bd fa 16           [ 6 ]                 JSR     XPDAT1                   ; F672: BD FA 16       '...'
0803 f675 8d a4              [ 6 ]                 BSR     ZF61B                    ; F675: 8D A4          '..'
0804 f677 ce ff 8d           [ 3 ]                 LDX     #MFF8D                   ; F677: CE FF 8D       '...'
0805 f67a bd f6 fd           [ 6 ] ZF67A           JSR     ZF6FD                    ; F67A: BD F6 FD       '...'
0806 f67d 8c ff 93           [ 4 ]                 CPX     #MFF93                   ; F67D: 8C FF 93       '...'
0807 f680 26 f8              [ 3 ]                 BNE     ZF67A                    ; F680: 26 F8          '&.'
0808 f682 53                 [ 2 ]                 COMB                             ; F682: 53             'S'
0809 f683 37                 [ 3 ]                 PSHB                             ; F683: 37             '7'
0810 f684 30                 [ 3 ]                 TSX                              ; F684: 30             '0'
0811 f685 8d 76              [ 6 ]                 BSR     ZF6FD                    ; F685: 8D 76          '.v'
0812 f687 33                 [ 4 ]                 PULB                             ; F687: 33             '3'
0813 f688 fe ff 0a           [ 5 ]                 LDX     MFF0A                    ; F688: FE FF 0A       '...'
0814 f68b ff ff 5a           [ 5 ]                 STX     MFF5A                    ; F68B: FF FF 5A       '..Z'
0815 f68e b6 ff 0d           [ 4 ] ZF68E           LDAA    MFF0D                    ; F68E: B6 FF 0D       '...'
0816 f691 b0 ff 5b           [ 4 ]                 SUBA    MFF5B                    ; F691: B0 FF 5B       '..['
0817 f694 f6 ff 0c           [ 4 ]                 LDAB    MFF0C                    ; F694: F6 FF 0C       '...'
0818 f697 f2 ff 5a           [ 4 ]                 SBCB    MFF5A                    ; F697: F2 FF 5A       '..Z'
0819 f69a 26 04              [ 3 ]                 BNE     ZF6A0                    ; F69A: 26 04          '&.'
0820 f69c 81 18              [ 2 ]                 CMPA    #$18                     ; F69C: 81 18          '..'
0821 f69e 25 02              [ 3 ]                 BCS     ZF6A2                    ; F69E: 25 02          '%.'
0822 f6a0 86 17              [ 2 ] ZF6A0           LDAA    #$17                     ; F6A0: 86 17          '..'
0823 f6a2 8b 04              [ 2 ] ZF6A2           ADDA    #$04                     ; F6A2: 8B 04          '..'
0824 f6a4 b7 ff 58           [ 4 ]                 STAA    MFF58                    ; F6A4: B7 FF 58       '..X'
0825 f6a7 80 03              [ 2 ]                 SUBA    #$03                     ; F6A7: 80 03          '..'
0826 f6a9 b7 ff 07           [ 4 ]                 STAA    MFF07                    ; F6A9: B7 FF 07       '...'
0827 f6ac ce fb d4           [ 3 ]                 LDX     #S1_TXT                  ; F6AC: CE FB D4       '...'
0828 f6af bd fa 16           [ 6 ]                 JSR     XPDAT1                   ; F6AF: BD FA 16       '...'
0829 f6b2 5f                 [ 2 ]                 CLRB                             ; F6B2: 5F             '_'
0830 f6b3 ce ff 58           [ 3 ]                 LDX     #MFF58                   ; F6B3: CE FF 58       '..X'
0831 f6b6 8d 45              [ 6 ]                 BSR     ZF6FD                    ; F6B6: 8D 45          '.E'
0832 f6b8 ce ff 5a           [ 3 ]                 LDX     #MFF5A                   ; F6B8: CE FF 5A       '..Z'
0833 f6bb 8d 40              [ 6 ]                 BSR     ZF6FD                    ; F6BB: 8D 40          '.@'
0834 f6bd 8d 3e              [ 6 ]                 BSR     ZF6FD                    ; F6BD: 8D 3E          '.>'
0835 f6bf fe ff 5a           [ 5 ]                 LDX     MFF5A                    ; F6BF: FE FF 5A       '..Z'
0836 f6c2 8d 39              [ 6 ] ZF6C2           BSR     ZF6FD                    ; F6C2: 8D 39          '.9'
0837 f6c4 7a ff 07           [ 6 ]                 DEC     MFF07                    ; F6C4: 7A FF 07       'z..'
0838 f6c7 26 f9              [ 3 ]                 BNE     ZF6C2                    ; F6C7: 26 F9          '&.'
0839 f6c9 ff ff 5a           [ 5 ]                 STX     MFF5A                    ; F6C9: FF FF 5A       '..Z'
0840 f6cc 53                 [ 2 ]                 COMB                             ; F6CC: 53             'S'
0841 f6cd 37                 [ 3 ]                 PSHB                             ; F6CD: 37             '7'
0842 f6ce 30                 [ 3 ]                 TSX                              ; F6CE: 30             '0'
0843 f6cf 8d 2c              [ 6 ]                 BSR     ZF6FD                    ; F6CF: 8D 2C          '.
0844 f6d1 33                 [ 4 ]                 PULB                             ; F6D1: 33             '3'
0845 f6d2 fe ff 5a           [ 5 ]                 LDX     MFF5A                    ; F6D2: FE FF 5A       '..Z'
0846 f6d5 09                 [ 3 ]                 DEX                              ; F6D5: 09             '.'
0847 f6d6 bc ff 0c           [ 6 ]                 CPX     MFF0C                    ; F6D6: BC FF 0C       '...'
0848 f6d9 26 b3              [ 3 ]                 BNE     ZF68E                    ; F6D9: 26 B3          '&.'
0849 f6db ce fb da           [ 3 ]                 LDX     #S9_TXT                  ; F6DB: CE FB DA       '...'
0850 f6de bd fa 16           [ 6 ]                 JSR     XPDAT1                   ; F6DE: BD FA 16       '...'
0851 f6e1 8d 1f              [ 6 ]                 BSR     ZF702                    ; F6E1: 8D 1F          '..'
0852 f6e3 bd fa 21           [ 6 ]                 JSR     XPCRLF1                  ; F6E3: BD FA 21       '..!'
0853 f6e6 86 14              [ 2 ]                 LDAA    #$14                     ; F6E6: 86 14          '..'
0854 f6e8 bd f9 e2           [ 6 ]                 JSR     XOUTCH1                  ; F6E8: BD F9 E2       '...'
0855 f6eb 7d ff 02           [ 6 ]                 TST     MFF02                    ; F6EB: 7D FF 02       '}..'
0856 f6ee 2a 08              [ 3 ]                 BPL     ZF6F8                    ; F6EE: 2A 08          '*.'
0857 f6f0 bd f6 22           [ 6 ]                 JSR     ZF622                    ; F6F0: BD F6 22       '.."'
0858 f6f3 86 39              [ 2 ]                 LDAA    #$39                     ; F6F3: 86 39          '.9'
0859 f6f5 bd f9 e2           [ 6 ]                 JSR     XOUTCH1                  ; F6F5: BD F9 E2       '...'
0860 f6f8 7f ff 62           [ 6 ] ZF6F8           CLR     MFF62                    ; F6F8: 7F FF 62       '..b'
0861 f6fb 20 1d              [ 3 ]                 BRA     PUNCH                    ; F6FB: 20 1D          ' .'
0862 f6fd eb 00              [ 4 ] ZF6FD           ADDB    ,X                       ; F6FD: EB 00          '..'
0863 f6ff 7e fa 07           [ 3 ]                 JMP     ZFA07                    ; F6FF: 7E FA 07       '~..'
0864 f702 c6 37              [ 2 ] ZF702           LDAB    #$37                     ; F702: C6 37          '.7'
0865 f704 4f                 [ 2 ] ZF704           CLRA                             ; F704: 4F             'O'
0866 f705 bd f9 e2           [ 6 ]                 JSR     XOUTCH1                  ; F705: BD F9 E2       '...'
0867 f708 5a                 [ 2 ]                 DECB                             ; F708: 5A             'Z'
0868 f709 26 f9              [ 3 ]                 BNE     ZF704                    ; F709: 26 F9          '&.'
0869 f70b 39                 [ 5 ]                 RTS                              ; F70B: 39             '9'
0870 f70c ce fb 83           [ 3 ] ZF70C           LDX     #EXEC                    ; F70C: CE FB 83       '...'
0871 f70f bd fa 14           [ 6 ]                 JSR     XPDATA1                  ; F70F: BD FA 14       '...'
0872 f712 bd fa 2c           [ 6 ]                 JSR     ZFA2C                    ; F712: BD FA 2C       '..
0873 f715 81 59              [ 2 ]                 CMPA    #'Y                      ; F715: 81 59          '.Y'
0874 f717 26 f3              [ 3 ]                 BNE     ZF70C                    ; F717: 26 F3          '&.'
0875 f719 39                 [ 5 ]                 RTS                              ; F719: 39             '9'
0876 f71a 8d 6b              [ 6 ] PUNCH           BSR     XBEGEN1                  ; F71A: 8D 6B          '.k'
0877 f71c b6 ff 04           [ 4 ]                 LDAA    MFF04                    ; F71C: B6 FF 04       '...'
0878 f71f 81 52              [ 2 ]                 CMPA    #'R                      ; F71F: 81 52          '.R'
0879 f721 27 03              [ 3 ]                 BEQ     ZF726                    ; F721: 27 03          ''.'
0880 f723 7e f6 34           [ 3 ]                 JMP     ZF634                    ; F723: 7E F6 34       '~.4'
0881 f726 8d e4              [ 6 ] ZF726           BSR     ZF70C                    ; F726: 8D E4          '..'
0882 f728 fe ff 0a           [ 5 ]                 LDX     MFF0A                    ; F728: FE FF 0A       '...'
0883 f72b ff ff 08           [ 5 ]                 STX     MFF08                    ; F72B: FF FF 08       '...'
0884 f72e b6 ff 09           [ 4 ]                 LDAA    MFF09                    ; F72E: B6 FF 09       '...'
0885 f731 84 f0              [ 2 ]                 ANDA    #$F0                     ; F731: 84 F0          '..'
0886 f733 b7 ff 09           [ 4 ]                 STAA    MFF09                    ; F733: B7 FF 09       '...'
0887 f736 bd fa 21           [ 6 ] ZF736           JSR     XPCRLF1                  ; F736: BD FA 21       '..!'
0888 f739 bd fa 21           [ 6 ] ZF739           JSR     XPCRLF1                  ; F739: BD FA 21       '..!'
0889 f73c ce ff 08           [ 3 ]                 LDX     #MFF08                   ; F73C: CE FF 08       '...'
0890 f73f bd f9 c7           [ 6 ]                 JSR     XOUT4H1                  ; F73F: BD F9 C7       '...'
0891 f742 fe ff 08           [ 5 ]                 LDX     MFF08                    ; F742: FE FF 08       '...'
0892 f745 c6 10              [ 2 ]                 LDAB    #$10                     ; F745: C6 10          '..'
0893 f747 bd f9 c9           [ 6 ] ZF747           JSR     XOUT2H1                  ; F747: BD F9 C9       '...'
0894 f74a 5a                 [ 2 ]                 DECB                             ; F74A: 5A             'Z'
0895 f74b 26 fa              [ 3 ]                 BNE     ZF747                    ; F74B: 26 FA          '&.'
0896 f74d bd f9 cb           [ 6 ]                 JSR     XPSPAC1                  ; F74D: BD F9 CB       '...'
0897 f750 c6 10              [ 2 ]                 LDAB    #$10                     ; F750: C6 10          '..'
0898 f752 fe ff 08           [ 5 ]                 LDX     MFF08                    ; F752: FE FF 08       '...'
0899 f755 a6 00              [ 4 ] ZF755           LDAA    ,X                       ; F755: A6 00          '..'
0900 f757 84 7f              [ 2 ]                 ANDA    #$7F                     ; F757: 84 7F          '..'
0901 f759 81 20              [ 2 ]                 CMPA    #$20                     ; F759: 81 20          '. '
0902 f75b 2d 04              [ 3 ]                 BLT     ZF761                    ; F75B: 2D 04          '-.'
0903 f75d 81 61              [ 2 ]                 CMPA    #$61                     ; F75D: 81 61          '.a'
0904 f75f 2d 02              [ 3 ]                 BLT     ZF763                    ; F75F: 2D 02          '-.'
0905 f761 86 2e              [ 2 ] ZF761           LDAA    #$2E                     ; F761: 86 2E          '..'
0906 f763 bd f9 e2           [ 6 ] ZF763           JSR     XOUTCH1                  ; F763: BD F9 E2       '...'
0907 f766 08                 [ 3 ]                 INX                              ; F766: 08             '.'
0908 f767 5a                 [ 2 ]                 DECB                             ; F767: 5A             'Z'
0909 f768 26 eb              [ 3 ]                 BNE     ZF755                    ; F768: 26 EB          '&.'
0910 f76a ff ff 08           [ 5 ]                 STX     MFF08                    ; F76A: FF FF 08       '...'
0911 f76d 8c 00 00           [ 4 ]                 CPX     #M0000                   ; F76D: 8C 00 00       '...'
0912 f770 27 a8              [ 3 ]                 BEQ     PUNCH                    ; F770: 27 A8          ''.'
0913 f772 b6 ff 0c           [ 4 ]                 LDAA    MFF0C                    ; F772: B6 FF 0C       '...'
0914 f775 f6 ff 0d           [ 4 ]                 LDAB    MFF0D                    ; F775: F6 FF 0D       '...'
0915 f778 f0 ff 09           [ 4 ]                 SUBB    MFF09                    ; F778: F0 FF 09       '...'
0916 f77b b2 ff 08           [ 4 ]                 SBCA    MFF08                    ; F77B: B2 FF 08       '...'
0917 f77e 25 9a              [ 3 ]                 BCS     PUNCH                    ; F77E: 25 9A          '%.'
0918 f780 7d ff 09           [ 6 ]                 TST     MFF09                    ; F780: 7D FF 09       '}..'
0919 f783 26 b4              [ 3 ]                 BNE     ZF739                    ; F783: 26 B4          '&.'
0920 f785 20 af              [ 3 ]                 BRA     ZF736                    ; F785: 20 AF          ' .'
0921 f787 ce fb 3a           [ 3 ] XBEGEN1         LDX     #BEGINADDR               ; F787: CE FB 3A       '..:'
0922 f78a bd fa 14           [ 6 ]                 JSR     XPDATA1                  ; F78A: BD FA 14       '...'
0923 f78d ce ff 0a           [ 3 ]                 LDX     #MFF0A                   ; F78D: CE FF 0A       '...'
0924 f790 bd f9 61           [ 6 ]                 JSR     ZF961                    ; F790: BD F9 61       '..a'
0925 f793 2b f2              [ 3 ]                 BMI     XBEGEN1                  ; F793: 2B F2          '+.'
0926 f795 ce fb 44           [ 3 ] ZF795           LDX     #ENDADDR                 ; F795: CE FB 44       '..D'
0927 f798 bd fa 14           [ 6 ]                 JSR     XPDATA1                  ; F798: BD FA 14       '...'
0928 f79b ce ff 0c           [ 3 ]                 LDX     #MFF0C                   ; F79B: CE FF 0C       '...'
0929 f79e bd f9 61           [ 6 ]                 JSR     ZF961                    ; F79E: BD F9 61       '..a'
0930 f7a1 2b f2              [ 3 ]                 BMI     ZF795                    ; F7A1: 2B F2          '+.'
0931 f7a3 b6 ff 0c           [ 4 ]                 LDAA    MFF0C                    ; F7A3: B6 FF 0C       '...'
0932 f7a6 f6 ff 0d           [ 4 ]                 LDAB    MFF0D                    ; F7A6: F6 FF 0D       '...'
0933 f7a9 f0 ff 0b           [ 4 ]                 SUBB    MFF0B                    ; F7A9: F0 FF 0B       '...'
0934 f7ac b2 ff 0a           [ 4 ]                 SBCA    MFF0A                    ; F7AC: B2 FF 0A       '...'
0935 f7af 25 d6              [ 3 ]                 BCS     XBEGEN1                  ; F7AF: 25 D6          '%.'
0936 f7b1 39                 [ 5 ]                 RTS                              ; F7B1: 39             '9'
0937 f7b2 86 ff              [ 2 ] SEARCH          LDAA    #$FF                     ; F7B2: 86 FF          '..'
0938 f7b4 b7 ff 5a           [ 4 ]                 STAA    MFF5A                    ; F7B4: B7 FF 5A       '..Z'
0939 f7b7 20 24              [ 3 ]                 BRA     ZF7DD                    ; F7B7: 20 24          ' $'
0940 f7b9 7f ff 5a           [ 6 ] LOAD            CLR     MFF5A                    ; F7B9: 7F FF 5A       '..Z'
0941 f7bc 20 08              [ 3 ]                 BRA     ZF7C6                    ; F7BC: 20 08          ' .'
0942 f7be 86 01              [ 2 ] VERIFY          LDAA    #$01                     ; F7BE: 86 01          '..'
0943 f7c0 b7 ff 5a           [ 4 ]                 STAA    MFF5A                    ; F7C0: B7 FF 5A       '..Z'
0944 f7c3 7f ff 61           [ 6 ]                 CLR     MFF61                    ; F7C3: 7F FF 61       '..a'
0945 f7c6 ce fb 89           [ 3 ] ZF7C6           LDX     #SGLCONT                 ; F7C6: CE FB 89       '...'
0946 f7c9 bd fa 14           [ 6 ]                 JSR     XPDATA1                  ; F7C9: BD FA 14       '...'
0947 f7cc bd fa 2c           [ 6 ]                 JSR     ZFA2C                    ; F7CC: BD FA 2C       '..
0948 f7cf b7 ff 58           [ 4 ]                 STAA    MFF58                    ; F7CF: B7 FF 58       '..X'
0949 f7d2 81 53              [ 2 ]                 CMPA    #'S                      ; F7D2: 81 53          '.S'
0950 f7d4 27 07              [ 3 ]                 BEQ     ZF7DD                    ; F7D4: 27 07          ''.'
0951 f7d6 81 43              [ 2 ]                 CMPA    #'C                      ; F7D6: 81 43          '.C'
0952 f7d8 26 ec              [ 3 ]                 BNE     ZF7C6                    ; F7D8: 26 EC          '&.'
0953 f7da bd fa 21           [ 6 ]                 JSR     XPCRLF1                  ; F7DA: BD FA 21       '..!'
0954 f7dd bd f8 a1           [ 6 ] ZF7DD           JSR     ZF8A1                    ; F7DD: BD F8 A1       '...'
0955 f7e0 b6 ff 8c           [ 4 ]                 LDAA    MFF8C                    ; F7E0: B6 FF 8C       '...'
0956 f7e3 81 30              [ 2 ]                 CMPA    #'0                      ; F7E3: 81 30          '.0'
0957 f7e5 26 33              [ 3 ]                 BNE     ZF81A                    ; F7E5: 26 33          '&3'
0958 f7e7 b6 ff 8d           [ 4 ]                 LDAA    MFF8D                    ; F7E7: B6 FF 8D       '...'
0959 f7ea ce ff 8d           [ 3 ]                 LDX     #MFF8D                   ; F7EA: CE FF 8D       '...'
0960 f7ed 08                 [ 3 ] ZF7ED           INX                              ; F7ED: 08             '.'
0961 f7ee 4a                 [ 2 ]                 DECA                             ; F7EE: 4A             'J'
0962 f7ef 26 fc              [ 3 ]                 BNE     ZF7ED                    ; F7EF: 26 FC          '&.'
0963 f7f1 86 04              [ 2 ]                 LDAA    #$04                     ; F7F1: 86 04          '..'
0964 f7f3 a7 00              [ 4 ]                 STAA    ,X                       ; F7F3: A7 00          '..'
0965 f7f5 ce ff 90           [ 3 ]                 LDX     #MFF90                   ; F7F5: CE FF 90       '...'
0966 f7f8 bd fa 14           [ 6 ]                 JSR     XPDATA1                  ; F7F8: BD FA 14       '...'
0967 f7fb bd f9 18           [ 6 ]                 JSR     ZF918                    ; F7FB: BD F9 18       '...'
0968 f7fe 7d ff 5a           [ 6 ]                 TST     MFF5A                    ; F7FE: 7D FF 5A       '}.Z'
0969 f801 2a da              [ 3 ]                 BPL     ZF7DD                    ; F801: 2A DA          '*.'
0970 f803 ce fb 4e           [ 3 ] ZF803           LDX     #CONTLDVERF              ; F803: CE FB 4E       '..N'
0971 f806 bd fa 14           [ 6 ]                 JSR     XPDATA1                  ; F806: BD FA 14       '...'
0972 f809 bd fa 2c           [ 6 ]                 JSR     ZFA2C                    ; F809: BD FA 2C       '..
0973 f80c 81 43              [ 2 ]                 CMPA    #'C                      ; F80C: 81 43          '.C'
0974 f80e 27 cd              [ 3 ]                 BEQ     ZF7DD                    ; F80E: 27 CD          ''.'
0975 f810 81 4c              [ 2 ]                 CMPA    #'L                      ; F810: 81 4C          '.L'
0976 f812 27 a5              [ 3 ]                 BEQ     LOAD                     ; F812: 27 A5          ''.'
0977 f814 81 56              [ 2 ]                 CMPA    #'V                      ; F814: 81 56          '.V'
0978 f816 27 a6              [ 3 ]                 BEQ     VERIFY                   ; F816: 27 A6          ''.'
0979 f818 20 e9              [ 3 ]                 BRA     ZF803                    ; F818: 20 E9          ' .'
0980 f81a 7d ff 5a           [ 6 ] ZF81A           TST     MFF5A                    ; F81A: 7D FF 5A       '}.Z'
0981 f81d 2b be              [ 3 ]                 BMI     ZF7DD                    ; F81D: 2B BE          '+.'
0982 f81f bd f9 18           [ 6 ]                 JSR     ZF918                    ; F81F: BD F9 18       '...'
0983 f822 b6 ff 8c           [ 4 ]                 LDAA    MFF8C                    ; F822: B6 FF 8C       '...'
0984 f825 81 31              [ 2 ]                 CMPA    #'1                      ; F825: 81 31          '.1'
0985 f827 27 0d              [ 3 ]                 BEQ     ZF836                    ; F827: 27 0D          ''.'
0986 f829 81 39              [ 2 ]                 CMPA    #'9                      ; F829: 81 39          '.9'
0987 f82b 26 b0              [ 3 ]                 BNE     ZF7DD                    ; F82B: 26 B0          '&.'
0988 f82d b6 ff 58           [ 4 ]                 LDAA    MFF58                    ; F82D: B6 FF 58       '..X'
0989 f830 81 43              [ 2 ]                 CMPA    #'C                      ; F830: 81 43          '.C'
0990 f832 27 a9              [ 3 ]                 BEQ     ZF7DD                    ; F832: 27 A9          ''.'
0991 f834 20 68              [ 3 ]                 BRA     ZF89E                    ; F834: 20 68          ' h'
0992 f836 b6 ff 8d           [ 4 ] ZF836           LDAA    MFF8D                    ; F836: B6 FF 8D       '...'
0993 f839 80 03              [ 2 ]                 SUBA    #$03                     ; F839: 80 03          '..'
0994 f83b b7 ff 8d           [ 4 ]                 STAA    MFF8D                    ; F83B: B7 FF 8D       '...'
0995 f83e ce ff 90           [ 3 ]                 LDX     #MFF90                   ; F83E: CE FF 90       '...'
0996 f841 ff ff 08           [ 5 ]                 STX     MFF08                    ; F841: FF FF 08       '...'
0997 f844 fe ff 8e           [ 5 ]                 LDX     MFF8E                    ; F844: FE FF 8E       '...'
0998 f847 ff ff 56           [ 5 ] ZF847           STX     MFF56                    ; F847: FF FF 56       '..V'
0999 f84a fe ff 08           [ 5 ]                 LDX     MFF08                    ; F84A: FE FF 08       '...'
1000 f84d a6 00              [ 4 ]                 LDAA    ,X                       ; F84D: A6 00          '..'
1001 f84f 08                 [ 3 ]                 INX                              ; F84F: 08             '.'
1002 f850 ff ff 08           [ 5 ]                 STX     MFF08                    ; F850: FF FF 08       '...'
1003 f853 fe ff 56           [ 5 ]                 LDX     MFF56                    ; F853: FE FF 56       '..V'
1004 f856 7d ff 5a           [ 6 ]                 TST     MFF5A                    ; F856: 7D FF 5A       '}.Z'
1005 f859 27 37              [ 3 ]                 BEQ     ZF892                    ; F859: 27 37          ''7'
1006 f85b a1 00              [ 4 ]                 CMPA    ,X                       ; F85B: A1 00          '..'
1007 f85d 27 2a              [ 3 ]                 BEQ     ZF889                    ; F85D: 27 2A          ''*'
1008 f85f 36                 [ 3 ]                 PSHA                             ; F85F: 36             '6'
1009 f860 ff ff 56           [ 5 ]                 STX     MFF56                    ; F860: FF FF 56       '..V'
1010 f863 7d ff 61           [ 6 ]                 TST     MFF61                    ; F863: 7D FF 61       '}.a'
1011 f866 26 0a              [ 3 ]                 BNE     ZF872                    ; F866: 26 0A          '&.'
1012 f868 0d                 [ 2 ]                 SEC                              ; F868: 0D             '.'
1013 f869 79 ff 61           [ 6 ]                 ROL     MFF61                    ; F869: 79 FF 61       'y.a'
1014 f86c ce fb 6f           [ 3 ]                 LDX     #ADRMEMTAP               ; F86C: CE FB 6F       '..o'
1015 f86f bd fa 14           [ 6 ]                 JSR     XPDATA1                  ; F86F: BD FA 14       '...'
1016 f872 ce ff 56           [ 3 ] ZF872           LDX     #MFF56                   ; F872: CE FF 56       '..V'
1017 f875 bd fa 21           [ 6 ]                 JSR     XPCRLF1                  ; F875: BD FA 21       '..!'
1018 f878 bd f9 c7           [ 6 ]                 JSR     XOUT4H1                  ; F878: BD F9 C7       '...'
1019 f87b fe ff 56           [ 5 ]                 LDX     MFF56                    ; F87B: FE FF 56       '..V'
1020 f87e bd f9 c9           [ 6 ]                 JSR     XOUT2H1                  ; F87E: BD F9 C9       '...'
1021 f881 30                 [ 3 ]                 TSX                              ; F881: 30             '0'
1022 f882 bd f9 c9           [ 6 ]                 JSR     XOUT2H1                  ; F882: BD F9 C9       '...'
1023 f885 32                 [ 4 ]                 PULA                             ; F885: 32             '2'
1024 f886 fe ff 56           [ 5 ]                 LDX     MFF56                    ; F886: FE FF 56       '..V'
1025 f889 08                 [ 3 ] ZF889           INX                              ; F889: 08             '.'
1026 f88a 7a ff 8d           [ 6 ]                 DEC     MFF8D                    ; F88A: 7A FF 8D       'z..'
1027 f88d 26 b8              [ 3 ]                 BNE     ZF847                    ; F88D: 26 B8          '&.'
1028 f88f 7e f7 dd           [ 3 ]                 JMP     ZF7DD                    ; F88F: 7E F7 DD       '~..'
1029 f892 a7 00              [ 4 ] ZF892           STAA    ,X                       ; F892: A7 00          '..'
1030 f894 a1 00              [ 4 ]                 CMPA    ,X                       ; F894: A1 00          '..'
1031 f896 27 f1              [ 3 ]                 BEQ     ZF889                    ; F896: 27 F1          ''.'
1032 f898 ce fb 5e           [ 3 ]                 LDX     #NOCHNGE                 ; F898: CE FB 5E       '..^'
1033 f89b bd fa 14           [ 6 ]                 JSR     XPDATA1                  ; F89B: BD FA 14       '...'
1034 f89e 7e f5 c2           [ 3 ] ZF89E           JMP     REENT3                   ; F89E: 7E F5 C2       '~..'
1035 f8a1 7f ff 8c           [ 6 ] ZF8A1           CLR     MFF8C                    ; F8A1: 7F FF 8C       '...'
1036 f8a4 7d ff 02           [ 6 ]                 TST     MFF02                    ; F8A4: 7D FF 02       '}..'
1037 f8a7 2a 0a              [ 3 ]                 BPL     ZF8B3                    ; F8A7: 2A 0A          '*.'
1038 f8a9 bd f6 22           [ 6 ] ZF8A9           JSR     ZF622                    ; F8A9: BD F6 22       '.."'
1039 f8ac 86 37              [ 2 ]                 LDAA    #$37                     ; F8AC: 86 37          '.7'
1040 f8ae bd f9 cf           [ 6 ]                 JSR     OUTCNSF                  ; F8AE: BD F9 CF       '...'
1041 f8b1 20 0d              [ 3 ]                 BRA     ZF8C0                    ; F8B1: 20 0D          ' .'
1042 f8b3 b6 fc fd           [ 4 ] ZF8B3           LDAA    PROM_1                   ; F8B3: B6 FC FD       '...'
1043 f8b6 84 5f              [ 2 ]                 ANDA    #$5F                     ; F8B6: 84 5F          '._'
1044 f8b8 b7 fc f4           [ 4 ]                 STAA    ACIA_0                   ; F8B8: B7 FC F4       '...'
1045 f8bb 86 11              [ 2 ]                 LDAA    #$11                     ; F8BB: 86 11          '..'
1046 f8bd bd f9 e2           [ 6 ]                 JSR     XOUTCH1                  ; F8BD: BD F9 E2       '...'
1047 f8c0 0d                 [ 2 ] ZF8C0           SEC                              ; F8C0: 0D             '.'
1048 f8c1 79 ff 53           [ 6 ]                 ROL     AECHO                    ; F8C1: 79 FF 53       'y.S'
1049 f8c4 bd fa 7f           [ 6 ]                 JSR     XINCHN1                  ; F8C4: BD FA 7F       '...'
1050 f8c7 81 0d              [ 2 ]                 CMPA    #$0D                     ; F8C7: 81 0D          '..'
1051 f8c9 26 05              [ 3 ]                 BNE     ZF8D0                    ; F8C9: 26 05          '&.'
1052 f8cb 7d ff 02           [ 6 ]                 TST     MFF02                    ; F8CB: 7D FF 02       '}..'
1053 f8ce 2b d9              [ 3 ]                 BMI     ZF8A9                    ; F8CE: 2B D9          '+.'
1054 f8d0 81 53              [ 2 ] ZF8D0           CMPA    #'S                      ; F8D0: 81 53          '.S'
1055 f8d2 26 ec              [ 3 ]                 BNE     ZF8C0                    ; F8D2: 26 EC          '&.'
1056 f8d4 ce ff 8d           [ 3 ]                 LDX     #MFF8D                   ; F8D4: CE FF 8D       '...'
1057 f8d7 0d                 [ 2 ] ZF8D7           SEC                              ; F8D7: 0D             '.'
1058 f8d8 79 ff 53           [ 6 ]                 ROL     AECHO                    ; F8D8: 79 FF 53       'y.S'
1059 f8db bd fa 7f           [ 6 ]                 JSR     XINCHN1                  ; F8DB: BD FA 7F       '...'
1060 f8de 81 7f              [ 2 ]                 CMPA    #$7F                     ; F8DE: 81 7F          '..'
1061 f8e0 27 f5              [ 3 ]                 BEQ     ZF8D7                    ; F8E0: 27 F5          ''.'
1062 f8e2 81 30              [ 2 ]                 CMPA    #'0                      ; F8E2: 81 30          '.0'
1063 f8e4 27 08              [ 3 ]                 BEQ     ZF8EE                    ; F8E4: 27 08          ''.'
1064 f8e6 81 31              [ 2 ]                 CMPA    #'1                      ; F8E6: 81 31          '.1'
1065 f8e8 27 04              [ 3 ]                 BEQ     ZF8EE                    ; F8E8: 27 04          ''.'
1066 f8ea 81 39              [ 2 ]                 CMPA    #'9                      ; F8EA: 81 39          '.9'
1067 f8ec 26 d2              [ 3 ]                 BNE     ZF8C0                    ; F8EC: 26 D2          '&.'
1068 f8ee b7 ff 8c           [ 4 ] ZF8EE           STAA    MFF8C                    ; F8EE: B7 FF 8C       '...'
1069 f8f1 7f ff 8b           [ 6 ]                 CLR     MFF8B                    ; F8F1: 7F FF 8B       '...'
1070 f8f4 8d 52              [ 6 ]                 BSR     ZF948                    ; F8F4: 8D 52          '.R'
1071 f8f6 b7 ff 07           [ 4 ]                 STAA    MFF07                    ; F8F6: B7 FF 07       '...'
1072 f8f9 8d 4d              [ 6 ] ZF8F9           BSR     ZF948                    ; F8F9: 8D 4D          '.M'
1073 f8fb 7a ff 07           [ 6 ]                 DEC     MFF07                    ; F8FB: 7A FF 07       'z..'
1074 f8fe 26 f9              [ 3 ]                 BNE     ZF8F9                    ; F8FE: 26 F9          '&.'
1075 f900 7c ff 8b           [ 6 ]                 INC     MFF8B                    ; F900: 7C FF 8B       '|..'
1076 f903 b6 fc fd           [ 4 ]                 LDAA    PROM_1                   ; F903: B6 FC FD       '...'
1077 f906 84 3f              [ 2 ]                 ANDA    #$3F                     ; F906: 84 3F          '.?'
1078 f908 b7 fc f4           [ 4 ]                 STAA    ACIA_0                   ; F908: B7 FC F4       '...'
1079 f90b ce fb bc           [ 3 ]                 LDX     #MFBBC                   ; F90B: CE FB BC       '...'
1080 f90e bd fa 16           [ 6 ]                 JSR     XPDAT1                   ; F90E: BD FA 16       '...'
1081 f911 b6 fc f5           [ 4 ]                 LDAA    ACIA_1                   ; F911: B6 FC F5       '...'
1082 f914 b6 fc f5           [ 4 ]                 LDAA    ACIA_1                   ; F914: B6 FC F5       '...'
1083 f917 39                 [ 5 ]                 RTS                              ; F917: 39             '9'
1084 f918 7d ff 8b           [ 6 ] ZF918           TST     MFF8B                    ; F918: 7D FF 8B       '}..'
1085 f91b 27 1e              [ 3 ]                 BEQ     ZF93B                    ; F91B: 27 1E          ''.'
1086 f91d ce fb 69           [ 3 ] ZF91D           LDX     #CHECKSM                 ; F91D: CE FB 69       '..i'
1087 f920 bd fa 14           [ 6 ]                 JSR     XPDATA1                  ; F920: BD FA 14       '...'
1088 f923 ce ff 8e           [ 3 ]                 LDX     #MFF8E                   ; F923: CE FF 8E       '...'
1089 f926 bd f9 c7           [ 6 ]                 JSR     XOUT4H1                  ; F926: BD F9 C7       '...'
1090 f929 bd fa 2c           [ 6 ]                 JSR     ZFA2C                    ; F929: BD FA 2C       '..
1091 f92c 81 52              [ 2 ]                 CMPA    #$52                     ; F92C: 81 52          '.R'
1092 f92e 26 05              [ 3 ]                 BNE     ZF935                    ; F92E: 26 05          '&.'
1093 f930 31                 [ 3 ]                 INS                              ; F930: 31             '1'
1094 f931 31                 [ 3 ]                 INS                              ; F931: 31             '1'
1095 f932 7e f7 dd           [ 3 ]                 JMP     ZF7DD                    ; F932: 7E F7 DD       '~..'
1096 f935 81 43              [ 2 ] ZF935           CMPA    #$43                     ; F935: 81 43          '.C'
1097 f937 26 e4              [ 3 ]                 BNE     ZF91D                    ; F937: 26 E4          '&.'
1098 f939 86 ff              [ 2 ]                 LDAA    #$FF                     ; F939: 86 FF          '..'
1099 f93b 39                 [ 5 ] ZF93B           RTS                              ; F93B: 39             '9'
1100 f93c 0d                 [ 2 ] ZF93C           SEC                              ; F93C: 0D             '.'
1101 f93d 79 ff 53           [ 6 ]                 ROL     AECHO                    ; F93D: 79 FF 53       'y.S'
1102 f940 bd fa 84           [ 6 ]                 JSR     ZFA84                    ; F940: BD FA 84       '...'
1103 f943 81 7f              [ 2 ]                 CMPA    #$7F                     ; F943: 81 7F          '..'
1104 f945 27 f5              [ 3 ]                 BEQ     ZF93C                    ; F945: 27 F5          ''.'
1105 f947 39                 [ 5 ]                 RTS                              ; F947: 39             '9'
1106 f948 8d f2              [ 6 ] ZF948           BSR     ZF93C                    ; F948: 8D F2          '..'
1107 f94a 48                 [ 2 ]                 ASLA                             ; F94A: 48             'H'
1108 f94b 48                 [ 2 ]                 ASLA                             ; F94B: 48             'H'
1109 f94c 48                 [ 2 ]                 ASLA                             ; F94C: 48             'H'
1110 f94d 48                 [ 2 ]                 ASLA                             ; F94D: 48             'H'
1111 f94e 16                 [ 2 ]                 TAB                              ; F94E: 16             '.'
1112 f94f 8d eb              [ 6 ]                 BSR     ZF93C                    ; F94F: 8D EB          '..'
1113 f951 1b                 [ 2 ]                 ABA                              ; F951: 1B             '.'
1114 f952 a7 00              [ 4 ]                 STAA    ,X                       ; F952: A7 00          '..'
1115 f954 bb ff 8b           [ 4 ]                 ADDA    MFF8B                    ; F954: BB FF 8B       '...'
1116 f957 b7 ff 8b           [ 4 ]                 STAA    MFF8B                    ; F957: B7 FF 8B       '...'
1117 f95a 8c ff d5           [ 4 ]                 CPX     #MFFD5                   ; F95A: 8C FF D5       '...'
1118 f95d 27 01              [ 3 ]                 BEQ     ZF960                    ; F95D: 27 01          ''.'
1119 f95f 08                 [ 3 ]                 INX                              ; F95F: 08             '.'
1120 f960 39                 [ 5 ] ZF960           RTS                              ; F960: 39             '9'
1121 f961 ff ff 56           [ 5 ] ZF961           STX     MFF56                    ; F961: FF FF 56       '..V'
1122 f964 8d 61              [ 6 ]                 BSR     XOUT4H1                  ; F964: 8D 61          '.a'
1123 f966 86 04              [ 2 ]                 LDAA    #$04                     ; F966: 86 04          '..'
1124 f968 20 07              [ 3 ]                 BRA     ZF971                    ; F968: 20 07          ' .'
1125 f96a ff ff 56           [ 5 ] ZF96A           STX     MFF56                    ; F96A: FF FF 56       '..V'
1126 f96d 8d 5a              [ 6 ]                 BSR     XOUT2H1                  ; F96D: 8D 5A          '.Z'
1127 f96f 86 02              [ 2 ]                 LDAA    #$02                     ; F96F: 86 02          '..'
1128 f971 b7 ff 5c           [ 4 ] ZF971           STAA    MFF5C                    ; F971: B7 FF 5C       '..\'
1129 f974 bd fa 40           [ 6 ]                 JSR     ZFA40                    ; F974: BD FA 40       '..@'
1130 f977 fe ff 56           [ 5 ]                 LDX     MFF56                    ; F977: FE FF 56       '..V'
1131 f97a bd fa 2e           [ 6 ]                 JSR     ZFA2E                    ; F97A: BD FA 2E       '...'
1132 f97d 26 36              [ 3 ]                 BNE     ZF9B5                    ; F97D: 26 36          '&6'
1133 f97f 5d                 [ 2 ]                 TSTB                             ; F97F: 5D             ']'
1134 f980 27 2d              [ 3 ]                 BEQ     ZF9AF                    ; F980: 27 2D          ''-'
1135 f982 f1 ff 5c           [ 4 ]                 CMPB    MFF5C                    ; F982: F1 FF 5C       '..\'
1136 f985 22 2e              [ 3 ]                 BHI     ZF9B5                    ; F985: 22 2E          '".'
1137 f987 f1 ff 07           [ 4 ]                 CMPB    MFF07                    ; F987: F1 FF 07       '...'
1138 f98a 22 29              [ 3 ]                 BHI     ZF9B5                    ; F98A: 22 29          '")'
1139 f98c f6 ff 5c           [ 4 ]                 LDAB    MFF5C                    ; F98C: F6 FF 5C       '..\'
1140 f98f c1 02              [ 2 ]                 CMPB    #$02                     ; F98F: C1 02          '..'
1141 f991 27 13              [ 3 ]                 BEQ     ZF9A6                    ; F991: 27 13          ''.'
1142 f993 f6 ff 08           [ 4 ]                 LDAB    MFF08                    ; F993: F6 FF 08       '...'
1143 f996 e7 00              [ 4 ]                 STAB    ,X                       ; F996: E7 00          '..'
1144 f998 e1 00              [ 4 ]                 CMPB    ,X                       ; F998: E1 00          '..'
1145 f99a 27 09              [ 3 ]                 BEQ     ZF9A5                    ; F99A: 27 09          ''.'
1146 f99c ce fb 5e           [ 3 ] ZF99C           LDX     #NOCHNGE                 ; F99C: CE FB 5E       '..^'
1147 f99f bd fa 14           [ 6 ]                 JSR     XPDATA1                  ; F99F: BD FA 14       '...'
1148 f9a2 7e f0 f3           [ 3 ]                 JMP     MAID$                    ; F9A2: 7E F0 F3       '~..'
1149 f9a5 08                 [ 3 ] ZF9A5           INX                              ; F9A5: 08             '.'
1150 f9a6 f6 ff 09           [ 4 ] ZF9A6           LDAB    MFF09                    ; F9A6: F6 FF 09       '...'
1151 f9a9 e7 00              [ 4 ]                 STAB    ,X                       ; F9A9: E7 00          '..'
1152 f9ab e1 00              [ 4 ]                 CMPB    ,X                       ; F9AB: E1 00          '..'
1153 f9ad 26 ed              [ 3 ]                 BNE     ZF99C                    ; F9AD: 26 ED          '&.'
1154 f9af 5f                 [ 2 ] ZF9AF           CLRB                             ; F9AF: 5F             '_'
1155 f9b0 fe ff 56           [ 5 ]                 LDX     MFF56                    ; F9B0: FE FF 56       '..V'
1156 f9b3 5d                 [ 2 ]                 TSTB                             ; F9B3: 5D             ']'
1157 f9b4 39                 [ 5 ]                 RTS                              ; F9B4: 39             '9'
1158 f9b5 c6 ff              [ 2 ] ZF9B5           LDAB    #$FF                     ; F9B5: C6 FF          '..'
1159 f9b7 39                 [ 5 ]                 RTS                              ; F9B7: 39             '9'
1160 f9b8 44                 [ 2 ] XCHEXL1         LSRA                             ; F9B8: 44             'D'
1161 f9b9 44                 [ 2 ]                 LSRA                             ; F9B9: 44             'D'
1162 f9ba 44                 [ 2 ]                 LSRA                             ; F9BA: 44             'D'
1163 f9bb 44                 [ 2 ]                 LSRA                             ; F9BB: 44             'D'
1164 f9bc 84 0f              [ 2 ] XCHEXR1         ANDA    #$0F                     ; F9BC: 84 0F          '..'
1165 f9be 8b 30              [ 2 ]                 ADDA    #$30                     ; F9BE: 8B 30          '.0'
1166 f9c0 81 39              [ 2 ]                 CMPA    #$39                     ; F9C0: 81 39          '.9'
1167 f9c2 23 02              [ 3 ]                 BLS     ZF9C6                    ; F9C2: 23 02          '#.'
1168 f9c4 8b 07              [ 2 ]                 ADDA    #$07                     ; F9C4: 8B 07          '..'
1169 f9c6 39                 [ 5 ] ZF9C6           RTS                              ; F9C6: 39             '9'
1170 f9c7 8d 3e              [ 6 ] XOUT4H1         BSR     ZFA07                    ; F9C7: 8D 3E          '.>'
1171 f9c9 8d 3c              [ 6 ] XOUT2H1         BSR     ZFA07                    ; F9C9: 8D 3C          '.<'
1172 f9cb 86 20              [ 2 ] XPSPAC1         LDAA    #$20                     ; F9CB: 86 20          '. '
1173 f9cd 20 13              [ 3 ]                 BRA     XOUTCH1                  ; F9CD: 20 13          ' .'
1174 f9cf 37                 [ 3 ] OUTCNSF         PSHB                             ; F9CF: 37             '7'
1175 f9d0 f6 fc f4           [ 4 ] ZF9D0           LDAB    ACIA_0                   ; F9D0: F6 FC F4       '...'
1176 f9d3 c5 02              [ 2 ]                 BITB    #$02                     ; F9D3: C5 02          '..'
1177 f9d5 27 f9              [ 3 ]                 BEQ     ZF9D0                    ; F9D5: 27 F9          ''.'
1178 f9d7 b7 fc f5           [ 4 ]                 STAA    ACIA_1                   ; F9D7: B7 FC F5       '...'
1179 f9da 33                 [ 4 ]                 PULB                             ; F9DA: 33             '3'
1180 f9db 39                 [ 5 ]                 RTS                              ; F9DB: 39             '9'
1181 f9dc 8d 29              [ 6 ] ZF9DC           BSR     ZFA07                    ; F9DC: 8D 29          '.)'
1182 f9de 8d 27              [ 6 ]                 BSR     ZFA07                    ; F9DE: 8D 27          '.''
1183 f9e0 86 2f              [ 2 ]                 LDAA    #$2F                     ; F9E0: 86 2F          './'
1184 f9e2 8d eb              [ 6 ] XOUTCH1         BSR     OUTCNSF                  ; F9E2: 8D EB          '..'
1185 f9e4 37                 [ 3 ]                 PSHB                             ; F9E4: 37             '7'
1186 f9e5 81 0d              [ 2 ]                 CMPA    #$0D                     ; F9E5: 81 0D          '..'
1187 f9e7 26 14              [ 3 ]                 BNE     ZF9FD                    ; F9E7: 26 14          '&.'
1188 f9e9 c6 04              [ 2 ]                 LDAB    #$04                     ; F9E9: C6 04          '..'
1189 f9eb 7d ff 62           [ 6 ]                 TST     MFF62                    ; F9EB: 7D FF 62       '}.b'
1190 f9ee 26 03              [ 3 ]                 BNE     ZF9F3                    ; F9EE: 26 03          '&.'
1191 f9f0 f6 ff f7           [ 4 ]                 LDAB    MFFF7                    ; F9F0: F6 FF F7       '...'
1192 f9f3 5a                 [ 2 ] ZF9F3           DECB                             ; F9F3: 5A             'Z'
1193 f9f4 2b 0f              [ 3 ]                 BMI     ZFA05                    ; F9F4: 2B 0F          '+.'
1194 f9f6 36                 [ 3 ]                 PSHA                             ; F9F6: 36             '6'
1195 f9f7 4f                 [ 2 ]                 CLRA                             ; F9F7: 4F             'O'
1196 f9f8 8d d5              [ 6 ]                 BSR     OUTCNSF                  ; F9F8: 8D D5          '..'
1197 f9fa 32                 [ 4 ]                 PULA                             ; F9FA: 32             '2'
1198 f9fb 20 f6              [ 3 ]                 BRA     ZF9F3                    ; F9FB: 20 F6          ' .'
1199 f9fd f6 ff f6           [ 4 ] ZF9FD           LDAB    MFFF6                    ; F9FD: F6 FF F6       '...'
1200 fa00 7d ff 62           [ 6 ]                 TST     MFF62                    ; FA00: 7D FF 62       '}.b'
1201 fa03 27 ee              [ 3 ]                 BEQ     ZF9F3                    ; FA03: 27 EE          ''.'
1202 fa05 33                 [ 4 ] ZFA05           PULB                             ; FA05: 33             '3'
1203 fa06 39                 [ 5 ]                 RTS                              ; FA06: 39             '9'
1204 fa07 a6 00              [ 4 ] ZFA07           LDAA    ,X                       ; FA07: A6 00          '..'
1205 fa09 8d ad              [ 6 ]                 BSR     XCHEXL1                  ; FA09: 8D AD          '..'
1206 fa0b 8d d5              [ 6 ]                 BSR     XOUTCH1                  ; FA0B: 8D D5          '..'
1207 fa0d a6 00              [ 4 ]                 LDAA    ,X                       ; FA0D: A6 00          '..'
1208 fa0f 8d ab              [ 6 ]                 BSR     XCHEXR1                  ; FA0F: 8D AB          '..'
1209 fa11 08                 [ 3 ]                 INX                              ; FA11: 08             '.'
1210 fa12 20 ce              [ 3 ]                 BRA     XOUTCH1                  ; FA12: 20 CE          ' .'
1211 fa14 8d 0b              [ 6 ] XPDATA1         BSR     XPCRLF1                  ; FA14: 8D 0B          '..'
1212 fa16 a6 00              [ 4 ] XPDAT1          LDAA    ,X                       ; FA16: A6 00          '..'
1213 fa18 81 04              [ 2 ]                 CMPA    #$04                     ; FA18: 81 04          '..'
1214 fa1a 27 23              [ 3 ]                 BEQ     ZFA3F                    ; FA1A: 27 23          ''#'
1215 fa1c 8d c4              [ 6 ]                 BSR     XOUTCH1                  ; FA1C: 8D C4          '..'
1216 fa1e 08                 [ 3 ]                 INX                              ; FA1E: 08             '.'
1217 fa1f 20 f5              [ 3 ]                 BRA     XPDAT1                   ; FA1F: 20 F5          ' .'
1218 fa21 86 0a              [ 2 ] XPCRLF1         LDAA    #$0A                     ; FA21: 86 0A          '..'
1219 fa23 8d bd              [ 6 ]                 BSR     XOUTCH1                  ; FA23: 8D BD          '..'
1220 fa25 86 0d              [ 2 ] ZFA25           LDAA    #$0D                     ; FA25: 86 0D          '..'
1221 fa27 8d b9              [ 6 ]                 BSR     XOUTCH1                  ; FA27: 8D B9          '..'
1222 fa29 4f                 [ 2 ]                 CLRA                             ; FA29: 4F             'O'
1223 fa2a 20 b6              [ 3 ] ZFA2A           BRA     XOUTCH1                  ; FA2A: 20 B6          ' .'
1224 fa2c 8d 51              [ 6 ] ZFA2C           BSR     XINCHN1                  ; FA2C: 8D 51          '.Q'
1225 fa2e 81 58              [ 2 ] ZFA2E           CMPA    #$58                     ; FA2E: 81 58          '.X'
1226 fa30 26 03              [ 3 ]                 BNE     ZFA35                    ; FA30: 26 03          '&.'
1227 fa32 7e f5 c2           [ 3 ]                 JMP     REENT3                   ; FA32: 7E F5 C2       '~..'
1228 fa35 81 5e              [ 2 ] ZFA35           CMPA    #$5E                     ; FA35: 81 5E          '.^'
1229 fa37 27 06              [ 3 ]                 BEQ     ZFA3F                    ; FA37: 27 06          ''.'
1230 fa39 81 0d              [ 2 ]                 CMPA    #$0D                     ; FA39: 81 0D          '..'
1231 fa3b 27 02              [ 3 ]                 BEQ     ZFA3F                    ; FA3B: 27 02          ''.'
1232 fa3d 81 0a              [ 2 ]                 CMPA    #$0A                     ; FA3D: 81 0A          '..'
1233 fa3f 39                 [ 5 ] ZFA3F           RTS                              ; FA3F: 39             '9'
1234 fa40 ce ff 08           [ 3 ] ZFA40           LDX     #MFF08                   ; FA40: CE FF 08       '...'
1235 fa43 7f ff 07           [ 6 ] XINADD1         CLR     MFF07                    ; FA43: 7F FF 07       '...'
1236 fa46 6f 00              [ 6 ]                 CLR     ,X                       ; FA46: 6F 00          'o.'
1237 fa48 6f 01              [ 6 ]                 CLR     $01,X                    ; FA48: 6F 01          'o.'
1238 fa4a 8d 38              [ 6 ] ZFA4A           BSR     ZFA84                    ; FA4A: 8D 38          '.8'
1239 fa4c 2b 19              [ 3 ]                 BMI     ZFA67                    ; FA4C: 2B 19          '+.'
1240 fa4e c6 04              [ 2 ]                 LDAB    #$04                     ; FA4E: C6 04          '..'
1241 fa50 68 01              [ 6 ] ZFA50           ASL     $01,X                    ; FA50: 68 01          'h.'
1242 fa52 69 00              [ 6 ]                 ROL     ,X                       ; FA52: 69 00          'i.'
1243 fa54 5a                 [ 2 ]                 DECB                             ; FA54: 5A             'Z'
1244 fa55 26 f9              [ 3 ]                 BNE     ZFA50                    ; FA55: 26 F9          '&.'
1245 fa57 36                 [ 3 ]                 PSHA                             ; FA57: 36             '6'
1246 fa58 aa 01              [ 4 ]                 ORAA    $01,X                    ; FA58: AA 01          '..'
1247 fa5a a7 01              [ 4 ]                 STAA    $01,X                    ; FA5A: A7 01          '..'
1248 fa5c 32                 [ 4 ]                 PULA                             ; FA5C: 32             '2'
1249 fa5d 7c ff 07           [ 6 ]                 INC     MFF07                    ; FA5D: 7C FF 07       '|..'
1250 fa60 f6 ff 07           [ 4 ]                 LDAB    MFF07                    ; FA60: F6 FF 07       '...'
1251 fa63 c1 05              [ 2 ]                 CMPB    #$05                     ; FA63: C1 05          '..'
1252 fa65 26 e3              [ 3 ]                 BNE     ZFA4A                    ; FA65: 26 E3          '&.'
1253 fa67 f6 ff 07           [ 4 ] ZFA67           LDAB    MFF07                    ; FA67: F6 FF 07       '...'
1254 fa6a 39                 [ 5 ]                 RTS                              ; FA6A: 39             '9'
1255 fa6b b6 fc f4           [ 4 ] XINCH1          LDAA    ACIA_0                   ; FA6B: B6 FC F4       '...'
1256 fa6e 47                 [ 2 ]                 ASRA                             ; FA6E: 47             'G'
1257 fa6f 24 fa              [ 3 ]                 BCC     XINCH1                   ; FA6F: 24 FA          '$.'
1258 fa71 b6 fc f5           [ 4 ]                 LDAA    ACIA_1                   ; FA71: B6 FC F5       '...'
1259 fa74 7d ff 53           [ 6 ]                 TST     AECHO                    ; FA74: 7D FF 53       '}.S'
1260 fa77 26 02              [ 3 ]                 BNE     ZFA7B                    ; FA77: 26 02          '&.'
1261 fa79 20 af              [ 3 ]                 BRA     ZFA2A                    ; FA79: 20 AF          ' .'
1262 fa7b 7f ff 53           [ 6 ] ZFA7B           CLR     AECHO                    ; FA7B: 7F FF 53       '..S'
1263 fa7e 39                 [ 5 ]                 RTS                              ; FA7E: 39             '9'
1264 fa7f 8d ea              [ 6 ] XINCHN1         BSR     XINCH1                   ; FA7F: 8D EA          '..'
1265 fa81 84 7f              [ 2 ]                 ANDA    #$7F                     ; FA81: 84 7F          '..'
1266 fa83 39                 [ 5 ]                 RTS                              ; FA83: 39             '9'
1267 fa84 8d f9              [ 6 ] ZFA84           BSR     XINCHN1                  ; FA84: 8D F9          '..'
1268 fa86 81 30              [ 2 ] XCBCDH1         CMPA    #$30                     ; FA86: 81 30          '.0'
1269 fa88 2b 11              [ 3 ]                 BMI     ZFA9B                    ; FA88: 2B 11          '+.'
1270 fa8a 81 39              [ 2 ]                 CMPA    #$39                     ; FA8A: 81 39          '.9'
1271 fa8c 2f 0a              [ 3 ]                 BLE     ZFA98                    ; FA8C: 2F 0A          '/.'
1272 fa8e 81 41              [ 2 ]                 CMPA    #$41                     ; FA8E: 81 41          '.A'
1273 fa90 2b 09              [ 3 ]                 BMI     ZFA9B                    ; FA90: 2B 09          '+.'
1274 fa92 81 46              [ 2 ]                 CMPA    #$46                     ; FA92: 81 46          '.F'
1275 fa94 2e 05              [ 3 ]                 BGT     ZFA9B                    ; FA94: 2E 05          '..'
1276 fa96 80 07              [ 2 ]                 SUBA    #$07                     ; FA96: 80 07          '..'
1277 fa98 84 0f              [ 2 ] ZFA98           ANDA    #$0F                     ; FA98: 84 0F          '..'
1278 fa9a 39                 [ 5 ]                 RTS                              ; FA9A: 39             '9'
1279 fa9b 7d fa e5           [ 6 ] ZFA9B           TST     #$FAE5                    ; FA9B: 7D FA E5       '}..'
1280 fa9e 39                 [ 5 ]                 RTS                              ; FA9E: 39             '9'
1281 fa9f 8d 89              [ 6 ] ZFA9F           BSR     ZFA2A                    ; FA9F: 8D 89          '..'
1282 faa1 86 2d              [ 2 ]                 LDAA    #$2D                     ; FAA1: 86 2D          '.-'
1283 faa3 20 85              [ 3 ]                 BRA     ZFA2A                    ; FAA3: 20 85          ' .'
1284 faa5 bd fa 21           [ 6 ] ZFAA5           JSR     XPCRLF1                  ; FAA5: BD FA 21       '..!'
1285 faa8 ce ff 16           [ 3 ] ZFAA8           LDX     #XREG$P                  ; FAA8: CE FF 16       '...'
1286 faab 86 50              [ 2 ]                 LDAA    #'P                      ; FAAB: 86 50          '.P'
1287 faad 8d 19              [ 6 ]                 BSR     ZFAC8                    ; FAAD: 8D 19          '..'
1288 faaf 86 58              [ 2 ]                 LDAA    #'X                      ; FAAF: 86 58          '.X'
1289 fab1 8d 15              [ 6 ]                 BSR     ZFAC8                    ; FAB1: 8D 15          '..'
1290 fab3 86 41              [ 2 ]                 LDAA    #'A                      ; FAB3: 86 41          '.A'
1291 fab5 8d 0c              [ 6 ]                 BSR     ZFAC3                    ; FAB5: 8D 0C          '..'
1292 fab7 86 42              [ 2 ]                 LDAA    #'B                      ; FAB7: 86 42          '.B'
1293 fab9 8d 08              [ 6 ]                 BSR     ZFAC3                    ; FAB9: 8D 08          '..'
1294 fabb 86 43              [ 2 ]                 LDAA    #'C                      ; FABB: 86 43          '.C'
1295 fabd 8d 04              [ 6 ]                 BSR     ZFAC3                    ; FABD: 8D 04          '..'
1296 fabf 86 53              [ 2 ]                 LDAA    #'S                      ; FABF: 86 53          '.S'
1297 fac1 20 05              [ 3 ]                 BRA     ZFAC8                    ; FAC1: 20 05          ' .'
1298 fac3 8d da              [ 6 ] ZFAC3           BSR     ZFA9F                    ; FAC3: 8D DA          '..'
1299 fac5 7e f9 c9           [ 3 ]                 JMP     XOUT2H1                  ; FAC5: 7E F9 C9       '~..'
1300 fac8 8d d5              [ 6 ] ZFAC8           BSR     ZFA9F                    ; FAC8: 8D D5          '..'
1301 faca 7e f9 c7           [ 3 ]                 JMP     XOUT4H1                  ; FACA: 7E F9 C7       '~..'
1302 facd 4f                 [ 2 ] S10             CLRA                             ; FACD: 4F             'O'
1303 face ce 00 00           [ 3 ]                 LDX     #M0000                   ; FACE: CE 00 00       '...'
1304 fad1 b7 ff 02           [ 4 ] ZFAD1           STAA    MFF02                    ; FAD1: B7 FF 02       '...'
1305 fad4 ff ff f6           [ 5 ]                 STX     MFFF6                    ; FAD4: FF FF F6       '...'
1306 fad7 7e f5 c2           [ 3 ]                 JMP     REENT3                   ; FAD7: 7E F5 C2       '~..'
1307 fada 86 01              [ 2 ] S30             LDAA    #$01                     ; FADA: 86 01          '..'
1308 fadc ce 00 04           [ 3 ]                 LDX     #M0004                   ; FADC: CE 00 04       '...'
1309 fadf 20 f0              [ 3 ]                 BRA     ZFAD1                    ; FADF: 20 F0          ' .'
1310 fae1 ce 03 17           [ 3 ] S120            LDX     #M0317                   ; FAE1: CE 03 17       '...'
1311 fae4 86 ff              [ 2 ] ZFAE4           LDAA    #$FF                     ; FAE4: 86 FF          '..'
1312 fae6 20 e9              [ 3 ]                 BRA     ZFAD1                    ; FAE6: 20 E9          ' .'
1313 fae8 ce 07 2f           [ 3 ] S240            LDX     #M072F                   ; FAE8: CE 07 2F       '../'
1314 faeb 20 f7              [ 3 ]                 BRA     ZFAE4                    ; FAEB: 20 F7          ' .'
1315 faed 4c 4f 41 44              MFAED           FCC     'LOAD'
1316 faf1 f7 b9                                    FDB     LOAD                     ; FAF1: F7 B9          '..'
1317 faf3 56 45 52 46                              FCC     'VERF'
1318 faf7 f7 be                                    FDB     VERIFY                   ; FAF7: F7 BE          '..'
1319 faf9 53 52 43 48                              FCC     'SRCH'
1320 fafd f7 b2                                    FDB     SEARCH                   ; FAFD: F7 B2          '..'
1321 faff 50 52 4e 54                              FCC     'PRNT'
1322 fb03 f7 1a                                    FDB     PUNCH                    ; FB03: F7 1A          '..'
1323 fb05 50 4e 43 48                              FCC     'PNCH'
1324 fb09 f7 1a                                    FDB     PUNCH                    ; FB09: F7 1A          '..'
1325 fb0b 4d 41 49 44                              FCC     'MAID'
1326 fb0f f0 ed                                    FDB     MAID                     ; FB0F: F0 ED          '..'
1327 fb11 53 31 30 2e                              FCC     'S10.'
1328 fb15 fa cd                                    FDB     S10                      ; FB15: FA CD          '..'
1329 fb17 53 33 30 2e                              FCC     'S30.'
1330 fb1b fa da                                    FDB     S30                      ; FB1B: FA DA          '..'
1331 fb1d 53 31 32 30                              FCC     'S120'
1332 fb21 fa e1                                    FDB     S120                     ; FB21: FA E1          '..'
1333 fb23 53 32 34 30                              FCC     'S240'
1334 fb27 fa e8                                    FDB     S240                     ; FB27: FA E8          '..'
1335 fb29 54 45 52 4d                              FCC     'TERM'
1336 fb2d f6 27                                    FDB     TERM                     ; FB2D: F6 27          '.''
1337 fb2f 45 58 42 55 47 20        GREETING        FCC     'EXBUG 1.2 '
     31 2e 32 20
1338 fb39 04                                       FCB     $04                      ; FB39: 04             '.'
1339 fb3a 42 45 47 20 41 44        BEGINADDR       FCC     'BEG ADDR '
     44 52 20
1340 fb43 04                                       FCB     $04                      ; FB43: 04             '.'
1341 fb44 45 4e 44 20 41 44        ENDADDR         FCC     'END ADDR '
     44 52 20
1342 fb4d 04                                       FCB     $04                      ; FB4D: 04             '.'
1343 fb4e 43 4f 4e 54 2f 4c        CONTLDVERF      FCC     'CONT/LOAD/VERF '
     4f 41 44 2f 56 45
     52 46 20
1344 fb5d 04                                       FCB     $04                      ; FB5D: 04             '.'
1345 fb5e 4e 4f 20 43 48 41        NOCHNGE         FCC     'NO CHANGE'
     4e 47 45
1346 fb67 07 04                                    FCB     $07,$04                  ; FB67: 07 04          '..'
1347 fb69 43 4b 53 4d 20           CHECKSM         FCC     'CKSM '
1348 fb6e 04                                       FCB     $04                      ; FB6E: 04             '.'
1349 fb6f 41 44 44 52 2f 4d        ADRMEMTAP       FCC     'ADDR/MEM/TAPE'
     45 4d 2f 54 41 50
     45
1350 fb7c 04                                       FCB     $04                      ; FB7C: 04             '.'
1351 fb7d 20 49 4e 56 4c           INVALID         FCC     ' INVL'
1352 fb82 04                                       FCB     $04                      ; FB82: 04             '.'
1353 fb83 45 58 45 43 20           EXEC            FCC     'EXEC '
1354 fb88 04                                       FCB     $04                      ; FB88: 04             '.'
1355 fb89 53 47 4c 2f 43 4f        SGLCONT         FCC     'SGL/CONT '
     4e 54 20
1356 fb92 04                                       FCB     $04                      ; FB92: 04             '.'
1357 fb93 53 54 4f 50 2d 4f        STOPONADDR      FCC     'STOP-ON-ADDRESS '
     4e 2d 41 44 44 52
     45 53 53 20
1358 fba3 04                                       FCB     $04                      ; FBA3: 04             '.'
1359 fba4 53 54 4f 50 20 41        STOPADDR        FCC     'STOP ADDR '
     44 44 52 20
1360 fbae 04                                       FCB     $04                      ; FBAE: 04             '.'
1361 fbaf 41 42 4f 52 54 45        ABORTED         FCC     'ABORTED AT '
     44 20 41 54 20
1362 fbba 04                                       FCB     $04                      ; FBBA: 04             '.'
1363 fbbb 14                       MFBBB           FCB     $14                      ; FBBB: 14             '.'
1364 fbbc 13 00 00 00 00 04        MFBBC           FCB     $13,$00,$00,$00,$00,$04  ; FBBC: 13 00 00 00 00 04 '......'
1365 fbc2 07                       MFBC2           FCB     $07                      ; FBC2: 07             '.'
1366 fbc3 20 3f                                    FCC     ' ?'
1367 fbc5 04                                       FCB     $04                      ; FBC5: 04             '.'
1368 fbc6 2a                       MFBC6           FCB     '*                       ; FBC6: 2A             '*'
1369 fbc7 04                                       FCB     $04                      ; FBC7: 04             '.'
1370 fbc8 42 4b 50 54 20 45        BKPTERR         FCC     'BKPT ERROR '
     52 52 4f 52 20
1371 fbd3 04                                       FCB     $04                      ; FBD3: 04             '.'
1372 fbd4 0d 0a 00                 S1_TXT          FCB     $0d,$0a,$00              ; FBD4: 0D 0A 00       '...'
1373 fbd7 53 31                                    FCC     'S1'                    ; FBD7: 53 31          'S1'
1374 fbd9 04                                       FCB     $04                      ; FBD9: 04             '.'
1375 fbda 0d 0a 00                 S9_TXT          FCB     $0d,$0a,$00              ; FBDA: 0D 0A 00       '...'
1376 fbdd 53 39 30 33 30 30                        FCC     'S9030000FC'
     30 30 46 43
1377 fbe7 0d 04                                    FCB     $0d,$04                  ; FBE7: 0D 04          '..'
1378 fbe9 0d 0a 00                 S0_TXT          FCB     $0d,$0a,$00              ; FBE9: 0D 0A 00       '...'
1379 fbec 53 30 30 42 30 30                        FCC     'S00B00005820'
     30 30 35 38 32 30
1380 fbf8 04                                       FCB     $04                      ; FBF8: 04             '.'
1381 fbf9 48 44 52 3d 58 20        HD_TXT          FCC     'HDR=X '
1382 fbff 04                                       FCB     $04                      ; FBFF: 04             '.'
1383                               
1384                               
1385                                               END
ABORTED    fbaf
ACIA_0     fcf4
ACIA_1     fcf5
ADRMEMTAP  fb6f
AECHO      ff53
BEGINADDR  fb3a
BKPIN$     ff4f
BKPTERR    fbc8
BRKPT$     ff1f
CHECKSM    fb69
CONTLDVERF fb4e
ENDADDR    fb44
EXEC       fb83
GREETING   fb2f
HD_TXT     fbf9
INVALID    fb7d
IRQ$VC     fff8
LOAD       f7b9
M0000      0000
M0004      0004
M0317      0317
M072F      072f
M30D4      30d4
M83FF      83ff
MAID       f0ed
MAID$      f0f3
MF02D      f02d
MF448      f448
MF4AA      f4aa
MFAED      faed
MFBBB      fbbb
MFBBC      fbbc
MFBC2      fbc2
MFBC6      fbc6
MFF02      ff02
MFF03      ff03
MFF04      ff04
MFF05      ff05
MFF06      ff06
MFF07      ff07
MFF08      ff08
MFF09      ff09
MFF0A      ff0a
MFF0B      ff0b
MFF0C      ff0c
MFF0D      ff0d
MFF0E      ff0e
MFF10      ff10
MFF12      ff12
MFF13      ff13
MFF14      ff14
MFF17      ff17
MFF2F      ff2f
MFF50      ff50
MFF51      ff51
MFF54      ff54
MFF56      ff56
MFF58      ff58
MFF5A      ff5a
MFF5B      ff5b
MFF5C      ff5c
MFF5D      ff5d
MFF5E      ff5e
MFF5F      ff5f
MFF60      ff60
MFF61      ff61
MFF62      ff62
MFF63      ff63
MFF8B      ff8b
MFF8C      ff8c
MFF8D      ff8d
MFF8E      ff8e
MFF90      ff90
MFF93      ff93
MFFD5      ffd5
MFFF6      fff6
MFFF7      fff7
MFFF9      fff9
NMI$VC     fffc
NOCHNGE    fb5e
OUTCNSF    f9cf
PIA_0      fcf8
PIA_1      fcf9
PIA_2      fcfa
PIA_3      fcfb
PROM_1     fcfd
PUNCH      f71a
PWRUP      f000
PWRUP1     f547
RAM_START  ff00
REENT3     f5c2
S0_TXT     fbe9
S10        facd
S120       fae1
S1_TXT     fbd4
S240       fae8
S30        fada
S9_TXT     fbda
SEARCH     f7b2
SGLCONT    fb89
STOPADDR   fba4
STOPONADDR fb93
SWI$VC     fffa
TERM       f627
VERIFY     f7be
XBEGEN     f003
XBEGEN1    f787
XCBCDH     f006
XCBCDH1    fa86
XCHEXL     f009
XCHEXL1    f9b8
XCHEXR     f00c
XCHEXR1    f9bc
XINADD     f00f
XINADD1    fa43
XINCH      f012
XINCH1     fa6b
XINCHN     f015
XINCHN1    fa7f
XOUT2H     f01b
XOUT2H1    f9c9
XOUT4H     f01e
XOUT4H1    f9c7
XOUTCH     f018
XOUTCH1    f9e2
XPCRLF     f021
XPCRLF1    fa21
XPDAT      f027
XPDAT1     fa16
XPDATA     f024
XPDATA1    fa14
XPSPAC     f02a
XPSPAC1    f9cb
XREG$C     ff1c
XREG$P     ff16
XREG$S     ff1d
XSTAK$     ff8a
ZF037      f037
ZF046      f046
ZF059      f059
ZF05C      f05c
ZF07C      f07c
ZF089      f089
ZF09E      f09e
ZF0A6      f0a6
ZF0A8      f0a8
ZF0C9      f0c9
ZF0D4      f0d4
ZF0E4      f0e4
ZF10C      f10c
ZF113      f113
ZF11E      f11e
ZF124      f124
ZF126      f126
ZF134      f134
ZF13A      f13a
ZF14B      f14b
ZF150      f150
ZF15E      f15e
ZF16F      f16f
ZF176      f176
ZF178      f178
ZF17B      f17b
ZF18D      f18d
ZF18F      f18f
ZF198      f198
ZF1A2      f1a2
ZF1AD      f1ad
ZF1BB      f1bb
ZF1BF      f1bf
ZF1C2      f1c2
ZF1CB      f1cb
ZF1DE      f1de
ZF205      f205
ZF211      f211
ZF216      f216
ZF21E      f21e
ZF232      f232
ZF240      f240
ZF25C      f25c
ZF267      f267
ZF26F      f26f
ZF274      f274
ZF27E      f27e
ZF285      f285
ZF28C      f28c
ZF298      f298
ZF29B      f29b
ZF29E      f29e
ZF2A6      f2a6
ZF2A9      f2a9
ZF2AF      f2af
ZF2B2      f2b2
ZF2BB      f2bb
ZF2C5      f2c5
ZF2CE      f2ce
ZF2D4      f2d4
ZF2E0      f2e0
ZF2E3      f2e3
ZF306      f306
ZF314      f314
ZF316      f316
ZF32E      f32e
ZF331      f331
ZF339      f339
ZF341      f341
ZF356      f356
ZF36E      f36e
ZF376      f376
ZF38E      f38e
ZF393      f393
ZF39F      f39f
ZF3A0      f3a0
ZF3A8      f3a8
ZF3B7      f3b7
ZF3C1      f3c1
ZF3C5      f3c5
ZF3D1      f3d1
ZF3DB      f3db
ZF3DE      f3de
ZF3E9      f3e9
ZF3F1      f3f1
ZF3F4      f3f4
ZF3FC      f3fc
ZF401      f401
ZF406      f406
ZF40E      f40e
ZF41B      f41b
ZF438      f438
ZF447      f447
ZF452      f452
ZF481      f481
ZF48D      f48d
ZF496      f496
ZF4C2      f4c2
ZF4D7      f4d7
ZF4DC      f4dc
ZF519      f519
ZF51C      f51c
ZF524      f524
ZF52A      f52a
ZF536      f536
ZF53C      f53c
ZF56A      f56a
ZF57B      f57b
ZF587      f587
ZF5D3      f5d3
ZF5E1      f5e1
ZF5EB      f5eb
ZF5F4      f5f4
ZF614      f614
ZF61B      f61b
ZF61E      f61e
ZF622      f622
ZF624      f624
ZF634      f634
ZF63D      f63d
ZF648      f648
ZF64A      f64a
ZF665      f665
ZF67A      f67a
ZF68E      f68e
ZF6A0      f6a0
ZF6A2      f6a2
ZF6C2      f6c2
ZF6F8      f6f8
ZF6FD      f6fd
ZF702      f702
ZF704      f704
ZF70C      f70c
ZF726      f726
ZF736      f736
ZF739      f739
ZF747      f747
ZF755      f755
ZF761      f761
ZF763      f763
ZF795      f795
ZF7C6      f7c6
ZF7DD      f7dd
ZF7ED      f7ed
ZF803      f803
ZF81A      f81a
ZF836      f836
ZF847      f847
ZF872      f872
ZF889      f889
ZF892      f892
ZF89E      f89e
ZF8A1      f8a1
ZF8A9      f8a9
ZF8B3      f8b3
ZF8C0      f8c0
ZF8D0      f8d0
ZF8D7      f8d7
ZF8EE      f8ee
ZF8F9      f8f9
ZF918      f918
ZF91D      f91d
ZF935      f935
ZF93B      f93b
ZF93C      f93c
ZF948      f948
ZF960      f960
ZF961      f961
ZF96A      f96a
ZF971      f971
ZF99C      f99c
ZF9A5      f9a5
ZF9A6      f9a6
ZF9AF      f9af
ZF9B5      f9b5
ZF9C6      f9c6
ZF9D0      f9d0
ZF9DC      f9dc
ZF9F3      f9f3
ZF9FD      f9fd
ZFA05      fa05
ZFA07      fa07
ZFA25      fa25
ZFA2A      fa2a
ZFA2C      fa2c
ZFA2E      fa2e
ZFA35      fa35
ZFA3F      fa3f
ZFA40      fa40
ZFA4A      fa4a
ZFA50      fa50
ZFA67      fa67
ZFA7B      fa7b
ZFA84      fa84
ZFA98      fa98
ZFA9B      fa9b
ZFA9F      fa9f
ZFAA5      faa5
ZFAA8      faa8
ZFAC3      fac3
ZFAC8      fac8
ZFAD1      fad1
ZFAE4      fae4
ABORTED    fbaf *1361 0667 
ACIA_0     fcf4 *0015 0680 0715 1044 1078 1175 1255 
ACIA_1     fcf5 *0016 0728 1081 1082 1178 1258 
ADRMEMTAP  fb6f *1349 1014 
AECHO      ff53 *0049 1048 1058 1101 1259 1262 
BEGINADDR  fb3a *1339 0921 
BKPIN$     ff4f *0046 0372 0461 0482 0484 0499 0575 
BKPTERR    fbc8 *1370 0586 
BRKPT$     ff1f *0044 0232 0246 0369 0377 0438 0463 0486 0696 
CHECKSM    fb69 *1347 1086 
CONTLDVERF fb4e *1343 0970 
ENDADDR    fb44 *1341 0452 0926 
EXEC       fb83 *1353 0870 
GREETING   fb2f *1337 0726 0737 
HD_TXT     fbf9 *1381 0776 
INVALID    fb7d *1351 0315 
IRQ$VC     fff8 *0073 0622 0695 
LOAD       f7b9 *0940 0976 1316 
M0000      0000 *0009 0226 0674 0911 1303 
M0004      0004 *0010 1308 
M0317      0317 *0011 1310 
M072F      072f *0012 1313 
M30D4      30d4 *0013 0765 
M83FF      83ff *0014 0681 
MAID       f0ed *0188 1326 
MAID$      f0f3 *0190 0134 0175 0210 0231 0374 0592 0664 1148 
MF02D      f02d *0100 0115 
MF448      f448 *0560 0687 
MF4AA      f4aa *0603 0685 
MFAED      faed *1315 0735 
MFBBB      fbbb *1363 0722 
MFBBC      fbbc *1364 1079 
MFBC2      fbc2 *1365 0208 
MFBC6      fbc6 *1368 0191 
MFF02      ff02 *0023 0678 0792 0855 1036 1052 1304 
MFF03      ff03 *0024 0729 0744 
MFF04      ff04 *0025 0747 0877 
MFF05      ff05 *0026 0750 
MFF06      ff06 *0027 0753 
MFF07      ff07 *0028 0143 0309 0311 0733 0826 0837 1071 1073 1137 
                      1235 1249 1250 1253 
MFF08      ff08 *0029 0116 0142 0173 0213 0217 0228 0236 0248 0303 
                      0318 0327 0511 0520 0883 0889 0891 0898 0910 0916 0996 
                      0999 1002 1142 1234 
MFF09      ff09 *0030 0117 0229 0251 0302 0319 0329 0884 0886 0915 
                      0918 1150 
MFF0A      ff0a *0031 0331 0813 0882 0923 0934 
MFF0B      ff0b *0032 0933 
MFF0C      ff0c *0033 0343 0817 0847 0913 0928 0931 
MFF0D      ff0d *0034 0815 0914 0932 
MFF0E      ff0e *0035 0675 0739 
MFF10      ff10 *0036 0676 0740 
MFF12      ff12 *0037 0335 0419 
MFF13      ff13 *0038 0330 0334 
MFF14      ff14 *0039 0454 0657 
MFF17      ff17 *0041 0376 
MFF2F      ff2f *0045 0243 0258 0385 0479 0497 
MFF50      ff50 *0047 0223 0459 0649 0659 
MFF51      ff51 *0048 0220 0651 0654 
MFF54      ff54 *0050 0189 0224 0348 0527 0553 0589 0665 
MFF56      ff56 *0051 0279 0280 0282 0297 0332 0338 0340 0342 0464 
                      0475 0487 0494 0998 1003 1009 1016 1019 1024 1121 1125 
                      1130 1155 
MFF58      ff58 *0052 0824 0830 0948 0988 
MFF5A      ff5a *0053 0118 0119 0126 0157 0165 0299 0300 0321 0814 
                      0818 0832 0835 0839 0845 0938 0940 0943 0968 0980 1004 
MFF5B      ff5b *0054 0301 0320 0816 
MFF5C      ff5c *0055 1128 1135 1139 
MFF5D      ff5d *0056 0350 0450 0545 
MFF5E      ff5e *0057 0446 0549 
MFF5F      ff5f *0058 0547 
MFF60      ff60 *0059 0188 0222 0347 0458 0501 0506 0522 0588 0646 
MFF61      ff61 *0060 0944 1010 1013 
MFF62      ff62 *0061 0791 0860 1189 1200 
MFF63      ff63 *0062 0699 
MFF8B      ff8b *0064 1069 1075 1084 1115 1116 
MFF8C      ff8c *0065 0955 0983 1035 1068 
MFF8D      ff8d *0066 0778 0804 0958 0959 0992 0994 1026 1056 
MFF8E      ff8e *0067 0997 1088 
MFF90      ff90 *0068 0965 0995 
MFF93      ff93 *0069 0787 0806 
MFFD5      ffd5 *0070 1117 
MFFF6      fff6 *0071 0677 0772 1199 1305 
MFFF7      fff7 *0072 1191 
MFFF9      fff9 *0074 0624 
NMI$VC     fffc *0076 0686 
NOCHNGE    fb5e *1345 1032 1146 
OUTCNSF    f9cf *1174 0770 1040 1184 1196 
PIA_0      fcf8 *0017 0548 0639 0701 
PIA_1      fcf9 *0018 0552 0561 0604 0638 
PIA_2      fcfa *0019 0550 0643 
PIA_3      fcfb *0020 0556 0558 0606 0642 
PROM_1     fcfd *0021 0611 0713 1042 1076 
PUNCH      f71a *0876 0861 0912 0917 1322 1324 
PWRUP      f000 *0085 
PWRUP1     f547 *0671 0085 
RAM_START  ff00 *0022 0516 0682 0689 
REENT3     f5c2 *0724 0741 0775 1034 1227 1306 
S0_TXT     fbe9 *1378 0801 
S10        facd *1302 1328 
S120       fae1 *1310 1332 
S1_TXT     fbd4 *1372 0827 
S240       fae8 *1313 1334 
S30        fada *1307 1330 
S9_TXT     fbda *1375 0849 
SEARCH     f7b2 *0937 1320 
SGLCONT    fb89 *1355 0945 
STOPADDR   fba4 *1359 0444 
STOPONADDR fb93 *1357 0661 
SWI$VC     fffa *0075 0688 
TERM       f627 *0771 0774 1336 
VERIFY     f7be *0942 0978 1318 
XBEGEN     f003 *0086 
XBEGEN1    f787 *0921 0086 0422 0876 0925 0935 
XCBCDH     f006 *0087 
XCBCDH1    fa86 *1268 0087 0104 
XCHEXL     f009 *0088 
XCHEXL1    f9b8 *1160 0088 1205 
XCHEXR     f00c *0089 
XCHEXR1    f9bc *1164 0089 1208 
XINADD     f00f *0090 
XINADD1    fa43 *1235 0090 
XINCH      f012 *0091 
XINCH1     fa6b *1255 0091 1257 1264 
XINCHN     f015 *0092 
XINCHN1    fa7f *1264 0092 0111 0146 0169 0184 0261 0294 0352 0424 
                      0779 1049 1059 1224 1267 
XOUT2H     f01b *0094 
XOUT2H1    f9c9 *1171 0094 0312 0341 0893 1020 1022 1126 1299 
XOUT4H     f01e *0095 
XOUT4H1    f9c7 *1170 0095 0174 0339 0440 0890 1018 1089 1122 1301 
XOUTCH     f018 *0093 
XOUTCH1    f9e2 *1184 0093 0128 0796 0798 0854 0859 0866 0906 1046 
                      1173 1206 1210 1215 1219 1221 1223 
XPCRLF     f021 *0096 
XPCRLF1    fa21 *1218 0096 0290 0313 0337 0400 0403 0437 0852 0887 
                      0888 0953 1017 1211 1284 
XPDAT      f027 *0098 
XPDAT1     fa16 *1212 0098 0209 0316 0723 0802 0828 0850 1080 1217 
XPDATA     f024 *0097 
XPDATA1    fa14 *1211 0097 0192 0445 0453 0587 0662 0668 0727 0777 
                      0871 0922 0927 0946 0966 0971 1015 1033 1087 1147 
XPSPAC     f02a *0099 
XPSPAC1    f9cb *1172 0099 0114 0172 0310 0418 0771 0896 
XREG$C     ff1c *0042 0563 0627 
XREG$P     ff16 *0040 0375 0404 0521 0530 0572 0574 0593 0656 1285 
XREG$S     ff1d *0043 0529 0569 0633 0684 
XSTAK$     ff8a *0063 0190 0514 0570 0584 0590 0634 0683 0724 
ZF037      f037 *0104 0113 0132 
ZF046      f046 *0111 0148 
ZF059      f059 *0118 0133 
ZF05C      f05c *0119 0122 
ZF07C      f07c *0135 0108 0162 0180 
ZF089      f089 *0142 0207 
ZF09E      f09e *0151 0171 
ZF0A6      f0a6 *0155 0105 0152 0177 0179 
ZF0A8      f0a8 *0156 0154 
ZF0C9      f0c9 *0172 0187 
ZF0D4      f0d4 *0176 0186 
ZF0E4      f0e4 *0184 0150 
ZF10C      f10c *0200 0198 
ZF113      f113 *0203 0201 
ZF11E      f11e *0208 0155 0206 0215 0245 0368 0436 0510 
ZF124      f124 *0210 0240 0255 
ZF126      f126 *0211 0195 
ZF134      f134 *0217 0266 
ZF13A      f13a *0220 0218 0227 
ZF14B      f14b *0226 0204 0358 
ZF150      f150 *0228 0273 
ZF15E      f15e *0233 0244 
ZF16F      f16f *0241 0235 
ZF176      f176 *0245 0260 0275 0293 0296 
ZF178      f178 *0246 0271 
ZF17B      f17b *0247 0259 
ZF18D      f18d *0255 0286 
ZF18F      f18f *0256 0249 0252 
ZF198      f198 *0261 0212 
ZF1A2      f1a2 *0265 0263 
ZF1AD      f1ad *0270 0268 
ZF1BB      f1bb *0277 0288 
ZF1BF      f1bf *0279 0291 
ZF1C2      f1c2 *0280 0314 
ZF1CB      f1cb *0283 0216 
ZF1DE      f1de *0292 0284 
ZF205      f205 *0309 0326 
ZF211      f211 *0313 0317 
ZF216      f216 *0315 0305 0307 0322 0324 
ZF21E      f21e *0318 0304 
ZF232      f232 *0327 0276 
ZF240      f240 *0332 0346 
ZF25C      f25c *0342 0336 
ZF267      f267 *0347 0365 0660 
ZF26F      f26f *0350 0363 
ZF274      f274 *0352 0202 
ZF27E      f27e *0356 0354 
ZF285      f285 *0359 0357 
ZF28C      f28c *0362 0360 
ZF298      f298 *0368 0328 
ZF29B      f29b *0369 0367 
ZF29E      f29e *0370 0373 
ZF2A6      f2a6 *0374 0344 0349 0351 0396 0417 0423 
ZF2A9      f2a9 *0375 0503 0508 0578 
ZF2AF      f2af *0377 0230 
ZF2B2      f2b2 *0378 0386 
ZF2BB      f2bb *0383 0379 0381 
ZF2C5      f2c5 *0389 0406 0408 0416 
ZF2CE      f2ce *0393 0410 0412 0414 
ZF2D4      f2d4 *0395 0392 
ZF2E0      f2e0 *0401 0399 
ZF2E3      f2e3 *0402 0427 
ZF306      f306 *0418 0431 
ZF314      f314 *0423 0443 0451 0460 
ZF316      f316 *0424 0199 
ZF32E      f32e *0436 0421 0448 0456 
ZF331      f331 *0437 0429 
ZF339      f339 *0440 0442 
ZF341      f341 *0444 0435 
ZF356      f356 *0452 0433 
ZF36E      f36e *0461 0524 
ZF376      f376 *0464 0480 
ZF38E      f38e *0475 0473 
ZF393      f393 *0477 0467 
ZF39F      f39f *0483 0462 
ZF3A0      f3a0 *0484 0577 0636 
ZF3A8      f3a8 *0487 0498 
ZF3B7      f3b7 *0494 0490 
ZF3C1      f3c1 *0499 0485 
ZF3C5      f3c5 *0501 0361 
ZF3D1      f3d1 *0506 0269 
ZF3DB      f3db *0510 0507 
ZF3DE      f3de *0511 0509 
ZF3E9      f3e9 *0516 0355 
ZF3F1      f3f1 *0520 0264 
ZF3F4      f3f4 *0521 0519 
ZF3FC      f3fc *0524 0505 0666 
ZF401      f401 *0526 0502 0504 0515 0523 0585 
ZF406      f406 *0528 0225 0525 0655 
ZF40E      f40e *0531 0539 
ZF41B      f41b *0540 0544 
ZF438      f438 *0553 0546 
ZF447      f447 *0559 0554 
ZF452      f452 *0564 0568 
ZF481      f481 *0586 0576 0579 
ZF48D      f48d *0590 0581 
ZF496      f496 *0593 0571 0635 
ZF4C2      f4c2 *0614 0618 
ZF4D7      f4d7 *0626 0610 0612 
ZF4DC      f4dc *0628 0632 
ZF519      f519 *0655 0658 
ZF51C      f51c *0656 0650 
ZF524      f524 *0659 0652 
ZF52A      f52a *0661 0645 
ZF536      f536 *0665 0647 
ZF53C      f53c *0667 0641 
ZF56A      f56a *0685 0670 
ZF57B      f57b *0691 0693 
ZF587      f587 *0697 0700 
ZF5D3      f5d3 *0730 0734 
ZF5E1      f5e1 *0736 0738 
ZF5EB      f5eb *0740 0743 
ZF5F4      f5f4 *0744 0736 0742 
ZF614      f614 *0758 0746 0749 0752 0755 
ZF61B      f61b *0765 0637 0725 0803 
ZF61E      f61e *0766 0767 
ZF622      f622 *0769 0716 0719 0794 0857 1038 
ZF624      f624 *0770 0718 0721 
ZF634      f634 *0776 0880 
ZF63D      f63d *0779 0788 
ZF648      f648 *0784 0781 
ZF64A      f64a *0785 0783 
ZF665      f665 *0797 0793 
ZF67A      f67a *0805 0807 
ZF68E      f68e *0815 0848 
ZF6A0      f6a0 *0822 0819 
ZF6A2      f6a2 *0823 0821 
ZF6C2      f6c2 *0836 0838 
ZF6F8      f6f8 *0860 0856 
ZF6FD      f6fd *0862 0805 0811 0831 0833 0834 0836 0843 
ZF702      f702 *0864 0799 0851 
ZF704      f704 *0865 0868 
ZF70C      f70c *0870 0789 0874 0881 
ZF726      f726 *0881 0879 
ZF736      f736 *0887 0920 
ZF739      f739 *0888 0919 
ZF747      f747 *0893 0895 
ZF755      f755 *0899 0909 
ZF761      f761 *0905 0902 
ZF763      f763 *0906 0904 
ZF795      f795 *0926 0930 
ZF7C6      f7c6 *0945 0941 0952 
ZF7DD      f7dd *0954 0939 0950 0969 0974 0981 0987 0990 1028 1095 
ZF7ED      f7ed *0960 0962 
ZF803      f803 *0970 0979 
ZF81A      f81a *0980 0957 
ZF836      f836 *0992 0985 
ZF847      f847 *0998 1027 
ZF872      f872 *1016 1011 
ZF889      f889 *1025 1007 1031 
ZF892      f892 *1029 1005 
ZF89E      f89e *1034 0991 
ZF8A1      f8a1 *1035 0954 
ZF8A9      f8a9 *1038 1053 
ZF8B3      f8b3 *1042 1037 
ZF8C0      f8c0 *1047 1041 1055 1067 
ZF8D0      f8d0 *1054 1051 
ZF8D7      f8d7 *1057 1061 
ZF8EE      f8ee *1068 1063 1065 
ZF8F9      f8f9 *1072 1074 
ZF918      f918 *1084 0967 0982 
ZF91D      f91d *1086 1097 
ZF935      f935 *1096 1092 
ZF93B      f93b *1099 1085 
ZF93C      f93c *1100 1104 1106 1112 
ZF948      f948 *1106 1070 1072 
ZF960      f960 *1120 1118 
ZF961      f961 *1121 0390 0447 0455 0773 0924 0929 
ZF96A      f96a *1125 0283 0394 0420 
ZF971      f971 *1128 1124 
ZF99C      f99c *1146 0474 1153 
ZF9A5      f9a5 *1149 1145 
ZF9A6      f9a6 *1150 1141 
ZF9AF      f9af *1154 1134 
ZF9B5      f9b5 *1158 1132 1136 1138 
ZF9C6      f9c6 *1169 1167 
ZF9D0      f9d0 *1175 1177 
ZF9DC      f9dc *1181 0281 
ZF9F3      f9f3 *1192 1190 1198 1201 
ZF9FD      f9fd *1199 1187 
ZFA05      fa05 *1202 1193 
ZFA07      fa07 *1204 0863 1170 1171 1181 1182 
ZFA25      fa25 *1220 0278 0401 
ZFA2A      fa2a *1223 1261 1281 1283 
ZFA2C      fa2c *1224 0730 0872 0947 0972 1090 
ZFA2E      fa2e *1225 0196 1131 
ZFA35      fa35 *1228 1226 
ZFA3F      fa3f *1233 1214 1229 1231 
ZFA40      fa40 *1234 0193 1129 
ZFA4A      fa4a *1238 1252 
ZFA50      fa50 *1241 1244 
ZFA67      fa67 *1253 1239 
ZFA7B      fa7b *1262 1260 
ZFA84      fa84 *1267 1102 1238 
ZFA98      fa98 *1277 1271 
ZFA9B      fa9b *1279 1269 1273 1275 
ZFA9F      fa9f *1281 0389 0393 1298 1300 
ZFAA5      faa5 *1284 0402 0591 0648 
ZFAA8      faa8 *1285 0663 0669 
ZFAC3      fac3 *1298 1291 1293 1295 
ZFAC8      fac8 *1300 1287 1289 1297 
ZFAD1      fad1 *1304 1309 1312 
ZFAE4      fae4 *1311 1314 
